

Microchip MPLAB XC8 Assembler V2.40 build 20220703182018 
                                                                                               Wed May 31 02:12:47 2023

Microchip MPLAB XC8 C Compiler v2.40 (Free license) build 20220703182018 Og1 
     1                           	processor	16F887
     2                           	pagewidth 120
     3                           	opt	flic
     4                           	psect	idataBANK0,global,class=CODE,delta=2,noexec
     5                           	psect	strings,global,class=STRING,delta=2,noexec
     6                           	psect	cinit,global,class=CODE,merge=1,delta=2
     7                           	psect	bssBANK0,global,class=BANK0,space=1,delta=1,noexec
     8                           	psect	dataBANK0,global,class=BANK0,space=1,delta=1,noexec
     9                           	psect	cstackCOMMON,global,class=COMMON,space=1,delta=1,noexec
    10                           	psect	cstackBANK0,global,class=BANK0,space=1,delta=1,noexec
    11                           	psect	maintext,global,class=CODE,split=1,delta=2
    12                           	psect	text1,local,class=CODE,merge=1,delta=2,group=2
    13                           	psect	text2,local,class=CODE,merge=1,delta=2
    14                           	psect	text3,local,class=CODE,merge=1,delta=2
    15                           	psect	text4,local,class=CODE,merge=1,delta=2
    16                           	psect	text5,local,class=CODE,merge=1,delta=2,group=1
    17                           	psect	text6,local,class=CODE,merge=1,delta=2,group=1
    18                           	psect	text7,local,class=CODE,merge=1,delta=2
    19                           	psect	text8,local,class=CODE,merge=1,delta=2
    20                           	psect	text9,local,class=CODE,merge=1,delta=2
    21                           	psect	intentry,global,class=CODE,delta=2
    22                           	psect	text10,local,class=CODE,merge=1,delta=2
    23                           	psect	text11,local,class=CODE,merge=1,delta=2
    24                           	psect	text12,local,class=CODE,merge=1,delta=2
    25                           	psect	text13,local,class=CODE,merge=1,delta=2
    26                           	psect	text14,local,class=CODE,merge=1,delta=2
    27                           	psect	idloc,global,abs,ovrld,class=IDLOC,space=5,delta=2,noexec
    28                           	psect	config,global,abs,ovrld,class=CONFIG,space=4,delta=2,noexec
    29                           	dabs	1,0x7E,2
    30     0000                     
    31                           ; Version 2.40
    32                           ; Generated 17/11/2021 GMT
    33                           ; 
    34                           ; Copyright © 2021, Microchip Technology Inc. and its subsidiaries ("Microchip")
    35                           ; All rights reserved.
    36                           ; 
    37                           ; This software is developed by Microchip Technology Inc. and its subsidiaries ("Microch
      +                          ip").
    38                           ; 
    39                           ; Redistribution and use in source and binary forms, with or without modification, are
    40                           ; permitted provided that the following conditions are met:
    41                           ; 
    42                           ;     1. Redistributions of source code must retain the above copyright notice, this lis
      +                          t of
    43                           ;        conditions and the following disclaimer.
    44                           ; 
    45                           ;     2. Redistributions in binary form must reproduce the above copyright notice, this 
      +                          list
    46                           ;        of conditions and the following disclaimer in the documentation and/or other
    47                           ;        materials provided with the distribution. Publication is not required when
    48                           ;        this file is used in an embedded application.
    49                           ; 
    50                           ;     3. Microchip's name may not be used to endorse or promote products derived from th
      +                          is
    51                           ;        software without specific prior written permission.
    52                           ; 
    53                           ; THIS SOFTWARE IS PROVIDED BY MICROCHIP "AS IS" AND ANY EXPRESS OR IMPLIED WARRANTIES,
    54                           ; INCLUDING, BUT NOT LIMITED TO, THE IMPLIED WARRANTIES OF MERCHANTABILITY AND FITNESS F
      +                          OR
    55                           ; PURPOSE ARE DISCLAIMED.  IN NO EVENT SHALL MICROCHIP BE LIABLE FOR ANY DIRECT, INDIREC
      +                          T,
    56                           ; INCIDENTAL, SPECIAL, EXEMPLARY, OR CONSEQUENTIAL DAMAGES (INCLUDING BUT NOT LIMITED TO
    57                           ; PROCUREMENT OF SUBSTITUTE GOODS OR SERVICES; LOSS OF USE, DATA OR PROFITS; OR BUSINESS
    58                           ; INTERRUPTION) HOWSOEVER CAUSED AND ON ANY THEORY OF LIABILITY, WHETHER IN CONTRACT, ST
      +                          RICT
    59                           ; LIABILITY, OR TORT (INCLUDING NEGLIGENCE OR OTHERWISE) ARISING IN ANY WAY OUT OF THE U
      +                          SE OF
    60                           ; THIS SOFTWARE, EVEN IF ADVISED OF THE POSSIBILITY OF SUCH DAMAGE.
    61                           ; 
    62                           ; 
    63                           ; Code-generator required, PIC16F887 Definitions
    64                           ; 
    65                           ; SFR Addresses
    66     0000                     	;# 
    67     0001                     	;# 
    68     0002                     	;# 
    69     0003                     	;# 
    70     0004                     	;# 
    71     0005                     	;# 
    72     0006                     	;# 
    73     0007                     	;# 
    74     0008                     	;# 
    75     0009                     	;# 
    76     000A                     	;# 
    77     000B                     	;# 
    78     000C                     	;# 
    79     000D                     	;# 
    80     000E                     	;# 
    81     000E                     	;# 
    82     000F                     	;# 
    83     0010                     	;# 
    84     0011                     	;# 
    85     0012                     	;# 
    86     0013                     	;# 
    87     0014                     	;# 
    88     0015                     	;# 
    89     0015                     	;# 
    90     0016                     	;# 
    91     0017                     	;# 
    92     0018                     	;# 
    93     0019                     	;# 
    94     001A                     	;# 
    95     001B                     	;# 
    96     001B                     	;# 
    97     001C                     	;# 
    98     001D                     	;# 
    99     001E                     	;# 
   100     001F                     	;# 
   101     0081                     	;# 
   102     0085                     	;# 
   103     0086                     	;# 
   104     0087                     	;# 
   105     0088                     	;# 
   106     0089                     	;# 
   107     008C                     	;# 
   108     008D                     	;# 
   109     008E                     	;# 
   110     008F                     	;# 
   111     0090                     	;# 
   112     0091                     	;# 
   113     0092                     	;# 
   114     0093                     	;# 
   115     0093                     	;# 
   116     0093                     	;# 
   117     0094                     	;# 
   118     0095                     	;# 
   119     0096                     	;# 
   120     0097                     	;# 
   121     0098                     	;# 
   122     0099                     	;# 
   123     009A                     	;# 
   124     009B                     	;# 
   125     009C                     	;# 
   126     009D                     	;# 
   127     009E                     	;# 
   128     009F                     	;# 
   129     0105                     	;# 
   130     0107                     	;# 
   131     0108                     	;# 
   132     0109                     	;# 
   133     010C                     	;# 
   134     010C                     	;# 
   135     010D                     	;# 
   136     010E                     	;# 
   137     010F                     	;# 
   138     0185                     	;# 
   139     0187                     	;# 
   140     0188                     	;# 
   141     0189                     	;# 
   142     018C                     	;# 
   143     018D                     	;# 
   144     0000                     	;# 
   145     0001                     	;# 
   146     0002                     	;# 
   147     0003                     	;# 
   148     0004                     	;# 
   149     0005                     	;# 
   150     0006                     	;# 
   151     0007                     	;# 
   152     0008                     	;# 
   153     0009                     	;# 
   154     000A                     	;# 
   155     000B                     	;# 
   156     000C                     	;# 
   157     000D                     	;# 
   158     000E                     	;# 
   159     000E                     	;# 
   160     000F                     	;# 
   161     0010                     	;# 
   162     0011                     	;# 
   163     0012                     	;# 
   164     0013                     	;# 
   165     0014                     	;# 
   166     0015                     	;# 
   167     0015                     	;# 
   168     0016                     	;# 
   169     0017                     	;# 
   170     0018                     	;# 
   171     0019                     	;# 
   172     001A                     	;# 
   173     001B                     	;# 
   174     001B                     	;# 
   175     001C                     	;# 
   176     001D                     	;# 
   177     001E                     	;# 
   178     001F                     	;# 
   179     0081                     	;# 
   180     0085                     	;# 
   181     0086                     	;# 
   182     0087                     	;# 
   183     0088                     	;# 
   184     0089                     	;# 
   185     008C                     	;# 
   186     008D                     	;# 
   187     008E                     	;# 
   188     008F                     	;# 
   189     0090                     	;# 
   190     0091                     	;# 
   191     0092                     	;# 
   192     0093                     	;# 
   193     0093                     	;# 
   194     0093                     	;# 
   195     0094                     	;# 
   196     0095                     	;# 
   197     0096                     	;# 
   198     0097                     	;# 
   199     0098                     	;# 
   200     0099                     	;# 
   201     009A                     	;# 
   202     009B                     	;# 
   203     009C                     	;# 
   204     009D                     	;# 
   205     009E                     	;# 
   206     009F                     	;# 
   207     0105                     	;# 
   208     0107                     	;# 
   209     0108                     	;# 
   210     0109                     	;# 
   211     010C                     	;# 
   212     010C                     	;# 
   213     010D                     	;# 
   214     010E                     	;# 
   215     010F                     	;# 
   216     0185                     	;# 
   217     0187                     	;# 
   218     0188                     	;# 
   219     0189                     	;# 
   220     018C                     	;# 
   221     018D                     	;# 
   222                           
   223                           	psect	idataBANK0
   224     0616                     __pidataBANK0:
   225                           
   226                           ;initializer for _addressD
   227     0616  3405               	retlw	5
   228                           
   229                           ;initializer for _addressC
   230     0617  3406               	retlw	6
   231                           
   232                           ;initializer for _address_CCP2CON
   233     0618  3403               	retlw	3
   234                           
   235                           ;initializer for _address_CCPR2L
   236     0619  3402               	retlw	2
   237                           
   238                           ;initializer for _address_CCP1CON
   239     061A  3401               	retlw	1
   240     000D                     _PIR2bits	set	13
   241     001A                     _RCREG	set	26
   242     0012                     _T2CON	set	18
   243     0012                     _T2CONbits	set	18
   244     0018                     _RCSTAbits	set	24
   245     0006                     _PORTB	set	6
   246     0005                     _PORTA	set	5
   247     0008                     _PORTD	set	8
   248     0008                     _PORTDbits	set	8
   249     0007                     _PORTCbits	set	7
   250     0009                     _PORTE	set	9
   251     0006                     _PORTBbits	set	6
   252     000B                     _INTCONbits	set	11
   253     001D                     _CCP2CONbits	set	29
   254     0017                     _CCP1CONbits	set	23
   255     001D                     _CCP2CON	set	29
   256     001B                     _CCPR2L	set	27
   257     0017                     _CCP1CON	set	23
   258     001E                     _ADRESH	set	30
   259     0015                     _CCPR1L	set	21
   260     001F                     _ADCON0bits	set	31
   261     000C                     _PIR1bits	set	12
   262     0065                     _RCIF	set	101
   263     008C                     _PIE1bits	set	140
   264     0092                     _PR2	set	146
   265     009F                     _ADCON1bits	set	159
   266     009A                     _SPBRGH	set	154
   267     0099                     _SPBRG	set	153
   268     0098                     _TXSTAbits	set	152
   269     008F                     _OSCCONbits	set	143
   270     0087                     _TRISCbits	set	135
   271     0089                     _TRISE	set	137
   272     0096                     _IOCB	set	150
   273     0095                     _WPUB	set	149
   274     0086                     _TRISB	set	134
   275     0085                     _TRISA	set	133
   276     0088                     _TRISD	set	136
   277     0081                     _OPTION_REGbits	set	129
   278     010C                     _EEDAT	set	268
   279     010D                     _EEADR	set	269
   280     018D                     _EECON2	set	397
   281     018C                     _EECON1bits	set	396
   282     0187                     _BAUDCTLbits	set	391
   283     0189                     _ANSELH	set	393
   284     0188                     _ANSEL	set	392
   285                           
   286                           	psect	strings
   287     0600                     __pstrings:
   288     0600                     stringtab:
   289     0600                     __stringtab:
   290     0600                     stringcode:	
   291                           ;	String table - string pointers are 1 byte each
   292                           
   293     0600                     stringdir:
   294     0600  3006               	movlw	high stringdir
   295     0601  008A               	movwf	10
   296     0602  0804               	movf	4,w
   297     0603  0A84               	incf	4,f
   298     0604  0782               	addwf	2,f
   299     0605                     __stringbase:
   300     0605  3400               	retlw	0
   301     0606                     __end_of__stringtab:
   302     0606                     STR_1:
   303     0606  3431               	retlw	49	;'1'
   304     0607  3400               	retlw	0
   305     0608                     STR_2:
   306     0608  3432               	retlw	50	;'2'
   307     0609  3400               	retlw	0
   308     060A                     STR_3:
   309     060A  3433               	retlw	51	;'3'
   310     060B  3400               	retlw	0
   311     060C                     STR_4:
   312     060C  3434               	retlw	52	;'4'
   313     060D  3400               	retlw	0
   314                           
   315                           	psect	cinit
   316     0011                     start_initialization:	
   317                           ; #config settings
   318                           
   319     0011                     __initialization:
   320                           
   321                           ; Initialize objects allocated to BANK0
   322     0011  120A  118A  2616  120A  118A  	fcall	__pidataBANK0	;fetch initializer
   323     0016  00D0               	movwf	__pdataBANK0& (0+127)
   324     0017  120A  118A  2617  120A  118A  	fcall	__pidataBANK0+1	;fetch initializer
   325     001C  00D1               	movwf	(__pdataBANK0+1)& (0+127)
   326     001D  120A  118A  2618  120A  118A  	fcall	__pidataBANK0+2	;fetch initializer
   327     0022  00D2               	movwf	(__pdataBANK0+2)& (0+127)
   328     0023  120A  118A  2619  120A  118A  	fcall	__pidataBANK0+3	;fetch initializer
   329     0028  00D3               	movwf	(__pdataBANK0+3)& (0+127)
   330     0029  120A  118A  261A  120A  118A  	fcall	__pidataBANK0+4	;fetch initializer
   331     002E  00D4               	movwf	(__pdataBANK0+4)& (0+127)
   332                           
   333                           ; Clear objects allocated to BANK0
   334     002F  01C5               	clrf	__pbssBANK0& (0+127)
   335     0030  01C6               	clrf	(__pbssBANK0+1)& (0+127)
   336     0031  01C7               	clrf	(__pbssBANK0+2)& (0+127)
   337     0032  01C8               	clrf	(__pbssBANK0+3)& (0+127)
   338     0033  01C9               	clrf	(__pbssBANK0+4)& (0+127)
   339     0034  01CA               	clrf	(__pbssBANK0+5)& (0+127)
   340     0035  01CB               	clrf	(__pbssBANK0+6)& (0+127)
   341     0036  01CC               	clrf	(__pbssBANK0+7)& (0+127)
   342     0037  01CD               	clrf	(__pbssBANK0+8)& (0+127)
   343     0038  01CE               	clrf	(__pbssBANK0+9)& (0+127)
   344     0039  01CF               	clrf	(__pbssBANK0+10)& (0+127)
   345     003A                     end_of_initialization:	
   346                           ;End of C runtime variable initialization code
   347                           
   348     003A                     __end_of__initialization:
   349     003A  0183               	clrf	3
   350     003B  120A  118A  283E   	ljmp	_main	;jump to C main() function
   351                           
   352                           	psect	bssBANK0
   353     0045                     __pbssBANK0:
   354     0045                     _menu:
   355     0045                     	ds	2
   356     0047                     _cont:
   357     0047                     	ds	2
   358     0049                     _CCPR_2:
   359     0049                     	ds	2
   360     004B                     _CCPR:
   361     004B                     	ds	2
   362     004D                     _address_CCPR1L:
   363     004D                     	ds	1
   364     004E                     _input:
   365     004E                     	ds	2
   366                           
   367                           	psect	dataBANK0
   368     0050                     __pdataBANK0:
   369     0050                     _addressD:
   370     0050                     	ds	1
   371     0051                     _addressC:
   372     0051                     	ds	1
   373     0052                     _address_CCP2CON:
   374     0052                     	ds	1
   375     0053                     _address_CCPR2L:
   376     0053                     	ds	1
   377     0054                     _address_CCP1CON:
   378     0054                     	ds	1
   379                           
   380                           	psect	cstackCOMMON
   381     0070                     __pcstackCOMMON:
   382     0070                     ?_EEPROM_write:
   383     0070                     ?_setup:	
   384                           ; 1 bytes @ 0x0
   385                           
   386     0070                     ?_USART_read:	
   387                           ; 1 bytes @ 0x0
   388                           
   389     0070                     ?_EEPROM_read:	
   390                           ; 1 bytes @ 0x0
   391                           
   392     0070                     ?_isr:	
   393                           ; 1 bytes @ 0x0
   394                           
   395     0070                     ?_main:	
   396                           ; 1 bytes @ 0x0
   397                           
   398     0070                     ?i1___wmul:	
   399                           ; 1 bytes @ 0x0
   400                           
   401     0070                     EEPROM_write@data:	
   402                           ; 2 bytes @ 0x0
   403                           
   404     0070                     i1___wmul@multiplier:	
   405                           ; 1 bytes @ 0x0
   406                           
   407                           
   408                           ; 2 bytes @ 0x0
   409     0070                     	ds	1
   410     0071                     ??_EEPROM_write:
   411     0071                     EEPROM_write@address:	
   412                           ; 1 bytes @ 0x1
   413                           
   414                           
   415                           ; 1 bytes @ 0x1
   416     0071                     	ds	1
   417     0072                     i1___wmul@multiplicand:
   418                           
   419                           ; 2 bytes @ 0x2
   420     0072                     	ds	2
   421     0074                     ??i1___wmul:
   422     0074                     i1___wmul@product:	
   423                           ; 1 bytes @ 0x4
   424                           
   425                           
   426                           ; 2 bytes @ 0x4
   427     0074                     	ds	2
   428     0076                     ?i1___awdiv:
   429     0076                     i1___awdiv@divisor:	
   430                           ; 2 bytes @ 0x6
   431                           
   432                           
   433                           ; 2 bytes @ 0x6
   434     0076                     	ds	2
   435     0078                     i1___awdiv@dividend:
   436                           
   437                           ; 2 bytes @ 0x8
   438     0078                     	ds	2
   439     007A                     ??i1___awdiv:
   440                           
   441                           ; 1 bytes @ 0xA
   442     007A                     	ds	1
   443     007B                     ??_map2:
   444     007B                     ??_map:	
   445                           ; 1 bytes @ 0xB
   446                           
   447     007B                     map@output:	
   448                           ; 1 bytes @ 0xB
   449                           
   450                           
   451                           ; 2 bytes @ 0xB
   452     007B                     	ds	2
   453                           
   454                           	psect	cstackBANK0
   455     0020                     __pcstackBANK0:
   456     0020                     i1___awdiv@counter:
   457                           
   458                           ; 1 bytes @ 0x0
   459     0020                     	ds	1
   460     0021                     i1___awdiv@sign:
   461                           
   462                           ; 1 bytes @ 0x1
   463     0021                     	ds	1
   464     0022                     i1___awdiv@quotient:
   465                           
   466                           ; 2 bytes @ 0x2
   467     0022                     	ds	2
   468     0024                     ?_map2:
   469     0024                     ?_map:	
   470                           ; 2 bytes @ 0x4
   471                           
   472     0024                     map@input:	
   473                           ; 2 bytes @ 0x4
   474                           
   475     0024                     map2@input:	
   476                           ; 2 bytes @ 0x4
   477                           
   478                           
   479                           ; 2 bytes @ 0x4
   480     0024                     	ds	2
   481     0026                     map2@outputMax:
   482                           
   483                           ; 2 bytes @ 0x6
   484     0026                     	ds	2
   485     0028                     map2@output:
   486                           
   487                           ; 2 bytes @ 0x8
   488     0028                     	ds	2
   489     002A                     ??_isr:
   490                           
   491                           ; 1 bytes @ 0xA
   492     002A                     	ds	4
   493     002E                     ??_setup:
   494     002E                     ??_USART_read:	
   495                           ; 1 bytes @ 0xE
   496                           
   497     002E                     ??_EEPROM_read:	
   498                           ; 1 bytes @ 0xE
   499                           
   500     002E                     ?_strcmp:	
   501                           ; 1 bytes @ 0xE
   502                           
   503     002E                     ?___wmul:	
   504                           ; 2 bytes @ 0xE
   505                           
   506     002E                     EEPROM_read@address:	
   507                           ; 2 bytes @ 0xE
   508                           
   509     002E                     strcmp@s2:	
   510                           ; 1 bytes @ 0xE
   511                           
   512     002E                     ___wmul@multiplier:	
   513                           ; 1 bytes @ 0xE
   514                           
   515                           
   516                           ; 2 bytes @ 0xE
   517     002E                     	ds	2
   518     0030                     ??_strcmp:
   519     0030                     ___wmul@multiplicand:	
   520                           ; 1 bytes @ 0x10
   521                           
   522                           
   523                           ; 2 bytes @ 0x10
   524     0030                     	ds	2
   525     0032                     ??___wmul:
   526     0032                     strcmp@r:	
   527                           ; 1 bytes @ 0x12
   528                           
   529     0032                     ___wmul@product:	
   530                           ; 1 bytes @ 0x12
   531                           
   532                           
   533                           ; 2 bytes @ 0x12
   534     0032                     	ds	1
   535     0033                     strcmp@s1:
   536                           
   537                           ; 1 bytes @ 0x13
   538     0033                     	ds	1
   539     0034                     ?___awdiv:
   540     0034                     ___awdiv@divisor:	
   541                           ; 2 bytes @ 0x14
   542                           
   543                           
   544                           ; 2 bytes @ 0x14
   545     0034                     	ds	2
   546     0036                     ___awdiv@dividend:
   547                           
   548                           ; 2 bytes @ 0x16
   549     0036                     	ds	2
   550     0038                     ??___awdiv:
   551                           
   552                           ; 1 bytes @ 0x18
   553     0038                     	ds	1
   554     0039                     ___awdiv@counter:
   555                           
   556                           ; 1 bytes @ 0x19
   557     0039                     	ds	1
   558     003A                     ___awdiv@sign:
   559                           
   560                           ; 1 bytes @ 0x1A
   561     003A                     	ds	1
   562     003B                     ___awdiv@quotient:
   563                           
   564                           ; 2 bytes @ 0x1B
   565     003B                     	ds	2
   566     003D                     ?_map3:
   567     003D                     ?_map4:	
   568                           ; 2 bytes @ 0x1D
   569                           
   570     003D                     map3@input:	
   571                           ; 2 bytes @ 0x1D
   572                           
   573     003D                     map4@input:	
   574                           ; 2 bytes @ 0x1D
   575                           
   576                           
   577                           ; 2 bytes @ 0x1D
   578     003D                     	ds	2
   579     003F                     ??_map3:
   580     003F                     ??_map4:	
   581                           ; 1 bytes @ 0x1F
   582                           
   583     003F                     map3@outputMax:	
   584                           ; 1 bytes @ 0x1F
   585                           
   586     003F                     map4@output:	
   587                           ; 2 bytes @ 0x1F
   588                           
   589                           
   590                           ; 2 bytes @ 0x1F
   591     003F                     	ds	2
   592     0041                     map3@output:
   593                           
   594                           ; 2 bytes @ 0x21
   595     0041                     	ds	2
   596     0043                     ??_main:
   597                           
   598                           ; 1 bytes @ 0x23
   599     0043                     	ds	2
   600                           
   601                           	psect	maintext
   602     003E                     __pmaintext:	
   603 ;;
   604 ;;Main: autosize = 0, tempsize = 2, incstack = 0, save=0
   605 ;;
   606 ;; *************** function _main *****************
   607 ;; Defined at:
   608 ;;		line 126 in file "proyecto2.c"
   609 ;; Parameters:    Size  Location     Type
   610 ;;		None
   611 ;; Auto vars:     Size  Location     Type
   612 ;;		None
   613 ;; Return value:  Size  Location     Type
   614 ;;                  1    wreg      void 
   615 ;; Registers used:
   616 ;;		wreg, fsr0l, fsr0h, status,2, status,0, pclath, cstack
   617 ;; Tracked objects:
   618 ;;		On entry : B00/0
   619 ;;		On exit  : 0/0
   620 ;;		Unchanged: 0/0
   621 ;; Data sizes:     COMMON   BANK0   BANK1   BANK3   BANK2
   622 ;;      Params:         0       0       0       0       0
   623 ;;      Locals:         0       0       0       0       0
   624 ;;      Temps:          0       2       0       0       0
   625 ;;      Totals:         0       2       0       0       0
   626 ;;Total ram usage:        2 bytes
   627 ;; Hardware stack levels required when called: 5
   628 ;; This function calls:
   629 ;;		_EEPROM_read
   630 ;;		_USART_read
   631 ;;		_map3
   632 ;;		_map4
   633 ;;		_setup
   634 ;;		_strcmp
   635 ;; This function is called by:
   636 ;;		Startup code after reset
   637 ;; This function uses a non-reentrant model
   638 ;;
   639                           
   640     003E                     _main:	
   641                           ;psect for function _main
   642                           
   643     003E                     l1732:	
   644                           ;incstack = 0
   645                           ; Regs used in _main: [wreg-fsr0h+status,2+status,0+pclath+cstack]
   646                           
   647                           
   648                           ;proyecto2.c: 127:     setup();
   649     003E  120A  118A  2340  120A  118A  	fcall	_setup
   650     0043  29D5               	goto	l1838
   651     0044                     l1734:
   652                           
   653                           ;proyecto2.c: 132:                 PORTE = 0b0001;
   654     0044  3001               	movlw	1
   655     0045  0089               	movwf	9	;volatile
   656     0046                     l1736:
   657                           
   658                           ;proyecto2.c: 133:                 if(ADCON0bits.GO == 0b00){
   659     0046  189F               	btfsc	31,1	;volatile
   660     0047  2849               	goto	u1121
   661     0048  284A               	goto	u1120
   662     0049                     u1121:
   663     0049  29D5               	goto	l1838
   664     004A                     u1120:
   665     004A  287B               	goto	l1766
   666     004B                     l179:	
   667                           ;proyecto2.c: 136:                 case 1:
   668                           
   669                           
   670                           ;proyecto2.c: 137:                PORTCbits.RC0 = 1;
   671     004B  1407               	bsf	7,0	;volatile
   672     004C                     l1740:
   673                           
   674                           ;proyecto2.c: 138:                 ADCON0bits.CHS = 0;
   675     004C  30C3               	movlw	-61
   676     004D  059F               	andwf	31,f	;volatile
   677     004E                     l1742:
   678                           
   679                           ;proyecto2.c: 139:                 _delay((unsigned long)((40)*(500000/4000000.0)));
   680     004E  284F               	nop2	;2 cycle nop
   681     004F  2850               	nop2	;2 cycle nop
   682     0050  0000               	nop
   683     0051                     l1744:
   684                           
   685                           ;proyecto2.c: 140:                 ADCON0bits.GO = 1;
   686     0051  1283               	bcf	3,5	;RP0=0, select bank0
   687     0052  1303               	bcf	3,6	;RP1=0, select bank0
   688     0053  149F               	bsf	31,1	;volatile
   689                           
   690                           ;proyecto2.c: 141:                 break;
   691     0054  29D5               	goto	l1838
   692     0055                     l181:	
   693                           ;proyecto2.c: 143:                 case 2:
   694                           
   695                           
   696                           ;proyecto2.c: 144:                 PORTDbits.RD1 = 1;
   697     0055  1488               	bsf	8,1	;volatile
   698     0056                     l1746:
   699                           
   700                           ;proyecto2.c: 145:                 ADCON0bits.CHS = 1;
   701     0056  081F               	movf	31,w	;volatile
   702     0057  39C3               	andlw	-61
   703     0058  3804               	iorlw	4
   704     0059  009F               	movwf	31	;volatile
   705     005A                     l1748:
   706                           
   707                           ;proyecto2.c: 146:                 _delay((unsigned long)((40)*(500000/4000000.0)));
   708     005A  285B               	nop2	;2 cycle nop
   709     005B  285C               	nop2	;2 cycle nop
   710     005C  0000               	nop
   711     005D                     l1750:
   712                           
   713                           ;proyecto2.c: 147:                 ADCON0bits.GO = 1;
   714     005D  1283               	bcf	3,5	;RP0=0, select bank0
   715     005E  1303               	bcf	3,6	;RP1=0, select bank0
   716     005F  149F               	bsf	31,1	;volatile
   717                           
   718                           ;proyecto2.c: 148:                 break;
   719     0060  29D5               	goto	l1838
   720     0061                     l182:	
   721                           ;proyecto2.c: 150:                 case 3:
   722                           
   723                           
   724                           ;proyecto2.c: 151:                PORTCbits.RC0 = 0;
   725     0061  1007               	bcf	7,0	;volatile
   726     0062                     l1752:
   727                           
   728                           ;proyecto2.c: 152:                 ADCON0bits.CHS = 2;
   729     0062  081F               	movf	31,w	;volatile
   730     0063  39C3               	andlw	-61
   731     0064  3808               	iorlw	8
   732     0065  009F               	movwf	31	;volatile
   733     0066                     l1754:
   734                           
   735                           ;proyecto2.c: 153:                 _delay((unsigned long)((40)*(500000/4000000.0)));
   736     0066  2867               	nop2	;2 cycle nop
   737     0067  2868               	nop2	;2 cycle nop
   738     0068  0000               	nop
   739     0069                     l1756:
   740                           
   741                           ;proyecto2.c: 154:                 ADCON0bits.GO = 1;
   742     0069  1283               	bcf	3,5	;RP0=0, select bank0
   743     006A  1303               	bcf	3,6	;RP1=0, select bank0
   744     006B  149F               	bsf	31,1	;volatile
   745                           
   746                           ;proyecto2.c: 155:                 break;
   747     006C  29D5               	goto	l1838
   748     006D                     l183:	
   749                           ;proyecto2.c: 157:                 case 4:
   750                           
   751                           
   752                           ;proyecto2.c: 158:                PORTDbits.RD1 = 0;
   753     006D  1088               	bcf	8,1	;volatile
   754     006E                     l1758:
   755                           
   756                           ;proyecto2.c: 159:                 ADCON0bits.CHS = 3;
   757     006E  081F               	movf	31,w	;volatile
   758     006F  39C3               	andlw	-61
   759     0070  380C               	iorlw	12
   760     0071  009F               	movwf	31	;volatile
   761     0072                     l1760:
   762                           
   763                           ;proyecto2.c: 160:                 _delay((unsigned long)((40)*(500000/4000000.0)));
   764     0072  2873               	nop2	;2 cycle nop
   765     0073  2874               	nop2	;2 cycle nop
   766     0074  0000               	nop
   767     0075                     l1762:
   768                           
   769                           ;proyecto2.c: 161:                 ADCON0bits.GO = 1;
   770     0075  1283               	bcf	3,5	;RP0=0, select bank0
   771     0076  1303               	bcf	3,6	;RP1=0, select bank0
   772     0077  149F               	bsf	31,1	;volatile
   773                           
   774                           ;proyecto2.c: 163:                 break;
   775     0078  29D5               	goto	l1838
   776     0079                     l184:	
   777                           ;proyecto2.c: 164:                 case 0:
   778                           
   779                           
   780                           ;proyecto2.c: 165:                     ADCON0bits.GO = 0;
   781     0079  109F               	bcf	31,1	;volatile
   782                           
   783                           ;proyecto2.c: 166:                     break;
   784     007A  29D5               	goto	l1838
   785     007B                     l1766:
   786                           
   787                           ; Switch on 2 bytes has been partitioned into a top level switch of size 1, and 1 sub-sw
      +                          itches
   788                           ; Switch size 1, requested type "simple"
   789                           ; Number of cases is 1, Range of values is 0 to 0
   790                           ; switch strategies available:
   791                           ; Name         Instructions Cycles
   792                           ; simple_byte            4     3 (average)
   793                           ; direct_byte           11     8 (fixed)
   794                           ; jumptable            260     6 (fixed)
   795                           ;	Chosen strategy is simple_byte
   796     007B  0848               	movf	_cont+1,w
   797     007C  3A00               	xorlw	0	; case 0
   798     007D  1903               	skipnz
   799     007E  2880               	goto	l1888
   800     007F  2891               	goto	l177
   801     0080                     l1888:
   802                           
   803                           ; Switch size 1, requested type "simple"
   804                           ; Number of cases is 5, Range of values is 0 to 4
   805                           ; switch strategies available:
   806                           ; Name         Instructions Cycles
   807                           ; simple_byte           16     9 (average)
   808                           ; direct_byte           23     8 (fixed)
   809                           ; jumptable            260     6 (fixed)
   810                           ;	Chosen strategy is simple_byte
   811     0080  0847               	movf	_cont,w
   812     0081  3A00               	xorlw	0	; case 0
   813     0082  1903               	skipnz
   814     0083  2879               	goto	l184
   815     0084  3A01               	xorlw	1	; case 1
   816     0085  1903               	skipnz
   817     0086  284B               	goto	l179
   818     0087  3A03               	xorlw	3	; case 2
   819     0088  1903               	skipnz
   820     0089  2855               	goto	l181
   821     008A  3A01               	xorlw	1	; case 3
   822     008B  1903               	skipnz
   823     008C  2861               	goto	l182
   824     008D  3A07               	xorlw	7	; case 4
   825     008E  1903               	skipnz
   826     008F  286D               	goto	l183
   827     0090  2891               	goto	l177
   828     0091                     l177:	
   829                           ;proyecto2.c: 170:         }
   830                           
   831                           
   832                           ;proyecto2.c: 171:                 break;
   833     0091  29D5               	goto	l1838
   834     0092                     l1768:
   835                           
   836                           ;proyecto2.c: 175:                 PORTE = 0b0010;
   837     0092  3002               	movlw	2
   838     0093  0089               	movwf	9	;volatile
   839     0094                     l1770:
   840                           
   841                           ;proyecto2.c: 176:                 input[0] = USART_read();
   842     0094  120A  118A  260E  120A  118A  	fcall	_USART_read
   843     0099  1283               	bcf	3,5	;RP0=0, select bank0
   844     009A  1303               	bcf	3,6	;RP1=0, select bank0
   845     009B  00CE               	movwf	_input
   846     009C                     l1772:
   847                           
   848                           ;proyecto2.c: 177:                 input[1] = '\0';
   849     009C  01CF               	clrf	_input+1
   850     009D                     l1774:
   851                           
   852                           ;proyecto2.c: 178:                 if (strcmp(input, "1") == 0){
   853     009D  3001               	movlw	(low ((STR_1-__stringbase)| (0+32768)))& (0+255)
   854     009E  00AE               	movwf	strcmp@s2
   855     009F  304E               	movlw	(low (_input| 0))& (0+255)
   856     00A0  120A  118A  24A3  120A  118A  	fcall	_strcmp
   857     00A5  1283               	bcf	3,5	;RP0=0, select bank0
   858     00A6  1303               	bcf	3,6	;RP1=0, select bank0
   859     00A7  082E               	movf	?_strcmp,w
   860     00A8  042F               	iorwf	?_strcmp+1,w
   861     00A9  1D03               	btfss	3,2
   862     00AA  28AC               	goto	u1131
   863     00AB  28AD               	goto	u1130
   864     00AC                     u1131:
   865     00AC  28C7               	goto	l1782
   866     00AD                     u1130:
   867     00AD                     l1776:
   868                           
   869                           ;proyecto2.c: 179:                    PORTCbits.RC0 = 1;
   870     00AD  1407               	bsf	7,0	;volatile
   871     00AE                     l1778:
   872                           
   873                           ;proyecto2.c: 180:                     CCPR1L = map3(USART_read());
   874     00AE  120A  118A  260E  120A  118A  	fcall	_USART_read
   875     00B3  1283               	bcf	3,5	;RP0=0, select bank0
   876     00B4  1303               	bcf	3,6	;RP1=0, select bank0
   877     00B5  00C3               	movwf	??_main
   878     00B6  01C4               	clrf	??_main+1
   879     00B7  0843               	movf	??_main,w
   880     00B8  00BD               	movwf	map3@input
   881     00B9  0844               	movf	??_main+1,w
   882     00BA  00BE               	movwf	map3@input+1
   883     00BB  120A  118A  24FE  120A  118A  	fcall	_map3
   884     00C0  1283               	bcf	3,5	;RP0=0, select bank0
   885     00C1  1303               	bcf	3,6	;RP1=0, select bank0
   886     00C2  083D               	movf	?_map3,w
   887     00C3  0095               	movwf	21	;volatile
   888     00C4                     l1780:
   889                           
   890                           ;proyecto2.c: 181:                     CCP1CON = 0b00011100 ;
   891     00C4  301C               	movlw	28
   892     00C5  0097               	movwf	23	;volatile
   893                           
   894                           ;proyecto2.c: 182:                  }
   895     00C6  29D5               	goto	l1838
   896     00C7                     l1782:
   897     00C7  3003               	movlw	(low ((STR_2-__stringbase)| (0+32768)))& (0+255)
   898     00C8  00AE               	movwf	strcmp@s2
   899     00C9  304E               	movlw	(low (_input| 0))& (0+255)
   900     00CA  120A  118A  24A3  120A  118A  	fcall	_strcmp
   901     00CF  1283               	bcf	3,5	;RP0=0, select bank0
   902     00D0  1303               	bcf	3,6	;RP1=0, select bank0
   903     00D1  082E               	movf	?_strcmp,w
   904     00D2  042F               	iorwf	?_strcmp+1,w
   905     00D3  1D03               	btfss	3,2
   906     00D4  28D6               	goto	u1141
   907     00D5  28D7               	goto	u1140
   908     00D6                     u1141:
   909     00D6  28F1               	goto	l1790
   910     00D7                     u1140:
   911     00D7                     l1784:
   912                           
   913                           ;proyecto2.c: 184:                    PORTDbits.RD1 = 1;
   914     00D7  1488               	bsf	8,1	;volatile
   915     00D8                     l1786:
   916                           
   917                           ;proyecto2.c: 185:                     CCPR2L = map3(USART_read());
   918     00D8  120A  118A  260E  120A  118A  	fcall	_USART_read
   919     00DD  1283               	bcf	3,5	;RP0=0, select bank0
   920     00DE  1303               	bcf	3,6	;RP1=0, select bank0
   921     00DF  00C3               	movwf	??_main
   922     00E0  01C4               	clrf	??_main+1
   923     00E1  0843               	movf	??_main,w
   924     00E2  00BD               	movwf	map3@input
   925     00E3  0844               	movf	??_main+1,w
   926     00E4  00BE               	movwf	map3@input+1
   927     00E5  120A  118A  24FE  120A  118A  	fcall	_map3
   928     00EA  1283               	bcf	3,5	;RP0=0, select bank0
   929     00EB  1303               	bcf	3,6	;RP1=0, select bank0
   930     00EC  083D               	movf	?_map3,w
   931     00ED  009B               	movwf	27	;volatile
   932     00EE                     l1788:
   933                           
   934                           ;proyecto2.c: 186:                     CCP2CON = 0b00011100 ;
   935     00EE  301C               	movlw	28
   936     00EF  009D               	movwf	29	;volatile
   937                           
   938                           ;proyecto2.c: 187:                 }
   939     00F0  29D5               	goto	l1838
   940     00F1                     l1790:
   941     00F1  3005               	movlw	(low ((STR_3-__stringbase)| (0+32768)))& (0+255)
   942     00F2  00AE               	movwf	strcmp@s2
   943     00F3  304E               	movlw	(low (_input| 0))& (0+255)
   944     00F4  120A  118A  24A3  120A  118A  	fcall	_strcmp
   945     00F9  1283               	bcf	3,5	;RP0=0, select bank0
   946     00FA  1303               	bcf	3,6	;RP1=0, select bank0
   947     00FB  082E               	movf	?_strcmp,w
   948     00FC  042F               	iorwf	?_strcmp+1,w
   949     00FD  1D03               	btfss	3,2
   950     00FE  2900               	goto	u1151
   951     00FF  2901               	goto	u1150
   952     0100                     u1151:
   953     0100  2930               	goto	l1800
   954     0101                     u1150:
   955     0101                     l1792:
   956                           
   957                           ;proyecto2.c: 189:                    PORTCbits.RC0 = 0;
   958     0101  1007               	bcf	7,0	;volatile
   959     0102                     l1794:
   960                           
   961                           ;proyecto2.c: 190:                     CCPR = map4(USART_read());
   962     0102  120A  118A  260E  120A  118A  	fcall	_USART_read
   963     0107  1283               	bcf	3,5	;RP0=0, select bank0
   964     0108  1303               	bcf	3,6	;RP1=0, select bank0
   965     0109  00C3               	movwf	??_main
   966     010A  01C4               	clrf	??_main+1
   967     010B  0843               	movf	??_main,w
   968     010C  00BD               	movwf	map4@input
   969     010D  0844               	movf	??_main+1,w
   970     010E  00BE               	movwf	map4@input+1
   971     010F  120A  118A  24D1  120A  118A  	fcall	_map4
   972     0114  1283               	bcf	3,5	;RP0=0, select bank0
   973     0115  1303               	bcf	3,6	;RP1=0, select bank0
   974     0116  083E               	movf	?_map4+1,w
   975     0117  00CC               	movwf	_CCPR+1
   976     0118  083D               	movf	?_map4,w
   977     0119  00CB               	movwf	_CCPR
   978     011A                     l1796:
   979                           
   980                           ;proyecto2.c: 191:                     CCPR1L = (uint8_t)(CCPR>>2);
   981     011A  084C               	movf	_CCPR+1,w
   982     011B  00C4               	movwf	??_main+1
   983     011C  084B               	movf	_CCPR,w
   984     011D  00C3               	movwf	??_main
   985     011E  1003               	clrc
   986     011F  0CC4               	rrf	??_main+1,f
   987     0120  0CC3               	rrf	??_main,f
   988     0121  1003               	clrc
   989     0122  0CC4               	rrf	??_main+1,f
   990     0123  0CC3               	rrf	??_main,f
   991     0124  0843               	movf	??_main,w
   992     0125  0095               	movwf	21	;volatile
   993     0126                     l1798:
   994                           
   995                           ;proyecto2.c: 192:                     CCP1CONbits.DC1B = CCPR & 0b11;
   996     0126  084B               	movf	_CCPR,w
   997     0127  3903               	andlw	3
   998     0128  00C3               	movwf	??_main
   999     0129  0EC3               	swapf	??_main,f
  1000     012A  0817               	movf	23,w	;volatile
  1001     012B  0643               	xorwf	??_main,w
  1002     012C  39CF               	andlw	-49
  1003     012D  0643               	xorwf	??_main,w
  1004     012E  0097               	movwf	23	;volatile
  1005                           
  1006                           ;proyecto2.c: 193:                 }
  1007     012F  29D5               	goto	l1838
  1008     0130                     l1800:
  1009     0130  3007               	movlw	(low ((STR_4-__stringbase)| (0+32768)))& (0+255)
  1010     0131  00AE               	movwf	strcmp@s2
  1011     0132  304E               	movlw	(low (_input| 0))& (0+255)
  1012     0133  120A  118A  24A3  120A  118A  	fcall	_strcmp
  1013     0138  1283               	bcf	3,5	;RP0=0, select bank0
  1014     0139  1303               	bcf	3,6	;RP1=0, select bank0
  1015     013A  082E               	movf	?_strcmp,w
  1016     013B  042F               	iorwf	?_strcmp+1,w
  1017     013C  1D03               	btfss	3,2
  1018     013D  293F               	goto	u1161
  1019     013E  2940               	goto	u1160
  1020     013F                     u1161:
  1021     013F  2891               	goto	l177
  1022     0140                     u1160:
  1023     0140                     l1802:
  1024                           
  1025                           ;proyecto2.c: 195:                    PORTDbits.RD1 = 0;
  1026     0140  1088               	bcf	8,1	;volatile
  1027     0141                     l1804:
  1028                           
  1029                           ;proyecto2.c: 196:                     CCPR_2 = map4(USART_read());
  1030     0141  120A  118A  260E  120A  118A  	fcall	_USART_read
  1031     0146  1283               	bcf	3,5	;RP0=0, select bank0
  1032     0147  1303               	bcf	3,6	;RP1=0, select bank0
  1033     0148  00C3               	movwf	??_main
  1034     0149  01C4               	clrf	??_main+1
  1035     014A  0843               	movf	??_main,w
  1036     014B  00BD               	movwf	map4@input
  1037     014C  0844               	movf	??_main+1,w
  1038     014D  00BE               	movwf	map4@input+1
  1039     014E  120A  118A  24D1  120A  118A  	fcall	_map4
  1040     0153  1283               	bcf	3,5	;RP0=0, select bank0
  1041     0154  1303               	bcf	3,6	;RP1=0, select bank0
  1042     0155  083E               	movf	?_map4+1,w
  1043     0156  00CA               	movwf	_CCPR_2+1
  1044     0157  083D               	movf	?_map4,w
  1045     0158  00C9               	movwf	_CCPR_2
  1046     0159                     l1806:
  1047                           
  1048                           ;proyecto2.c: 197:                     CCPR2L = (uint8_t)(CCPR_2>>2);
  1049     0159  084A               	movf	_CCPR_2+1,w
  1050     015A  00C4               	movwf	??_main+1
  1051     015B  0849               	movf	_CCPR_2,w
  1052     015C  00C3               	movwf	??_main
  1053     015D  1003               	clrc
  1054     015E  0CC4               	rrf	??_main+1,f
  1055     015F  0CC3               	rrf	??_main,f
  1056     0160  1003               	clrc
  1057     0161  0CC4               	rrf	??_main+1,f
  1058     0162  0CC3               	rrf	??_main,f
  1059     0163  0843               	movf	??_main,w
  1060     0164  009B               	movwf	27	;volatile
  1061     0165                     l1808:
  1062                           
  1063                           ;proyecto2.c: 198:                     CCP2CONbits.DC2B0 = CCPR_2 & 0b11;
  1064     0165  0849               	movf	_CCPR_2,w
  1065     0166  3903               	andlw	3
  1066     0167  00C3               	movwf	??_main
  1067     0168  0EC3               	swapf	??_main,f
  1068     0169  081D               	movf	29,w	;volatile
  1069     016A  0643               	xorwf	??_main,w
  1070     016B  39EF               	andlw	-17
  1071     016C  0643               	xorwf	??_main,w
  1072     016D  009D               	movwf	29	;volatile
  1073     016E  29D5               	goto	l1838
  1074     016F                     l1810:
  1075                           
  1076                           ;proyecto2.c: 203:               PORTE = 0b0100;
  1077     016F  3004               	movlw	4
  1078     0170  0089               	movwf	9	;volatile
  1079     0171                     l1812:
  1080                           
  1081                           ;proyecto2.c: 204:               CCPR1L = EEPROM_read(address_CCPR1L);
  1082     0171  084D               	movf	_address_CCPR1L,w
  1083     0172  120A  118A  25EE  120A  118A  	fcall	_EEPROM_read
  1084     0177  1283               	bcf	3,5	;RP0=0, select bank0
  1085     0178  1303               	bcf	3,6	;RP1=0, select bank0
  1086     0179  0095               	movwf	21	;volatile
  1087     017A                     l1814:
  1088                           
  1089                           ;proyecto2.c: 205:               CCP1CON = EEPROM_read(address_CCP1CON);
  1090     017A  0854               	movf	_address_CCP1CON,w
  1091     017B  120A  118A  25EE  120A  118A  	fcall	_EEPROM_read
  1092     0180  1283               	bcf	3,5	;RP0=0, select bank0
  1093     0181  1303               	bcf	3,6	;RP1=0, select bank0
  1094     0182  0097               	movwf	23	;volatile
  1095     0183                     l1816:
  1096                           
  1097                           ;proyecto2.c: 206:               CCPR2L = EEPROM_read(address_CCPR2L);
  1098     0183  0853               	movf	_address_CCPR2L,w
  1099     0184  120A  118A  25EE  120A  118A  	fcall	_EEPROM_read
  1100     0189  1283               	bcf	3,5	;RP0=0, select bank0
  1101     018A  1303               	bcf	3,6	;RP1=0, select bank0
  1102     018B  009B               	movwf	27	;volatile
  1103     018C                     l1818:
  1104                           
  1105                           ;proyecto2.c: 207:               CCP2CON = EEPROM_read(address_CCP2CON);
  1106     018C  0852               	movf	_address_CCP2CON,w
  1107     018D  120A  118A  25EE  120A  118A  	fcall	_EEPROM_read
  1108     0192  1283               	bcf	3,5	;RP0=0, select bank0
  1109     0193  1303               	bcf	3,6	;RP1=0, select bank0
  1110     0194  009D               	movwf	29	;volatile
  1111     0195                     l1820:
  1112                           
  1113                           ;proyecto2.c: 208:               if (EEPROM_read(addressC)==0xFF){
  1114     0195  0851               	movf	_addressC,w
  1115     0196  120A  118A  25EE  120A  118A  	fcall	_EEPROM_read
  1116     019B  3AFF               	xorlw	255
  1117     019C  1D03               	skipz
  1118     019D  299F               	goto	u1171
  1119     019E  29A0               	goto	u1170
  1120     019F                     u1171:
  1121     019F  29A4               	goto	l1824
  1122     01A0                     u1170:
  1123     01A0                     l1822:
  1124                           
  1125                           ;proyecto2.c: 209:                   PORTCbits.RC0 = 1;
  1126     01A0  1283               	bcf	3,5	;RP0=0, select bank0
  1127     01A1  1303               	bcf	3,6	;RP1=0, select bank0
  1128     01A2  1407               	bsf	7,0	;volatile
  1129                           
  1130                           ;proyecto2.c: 210:               }else if (EEPROM_read(addressC)==0x00){
  1131     01A3  29B4               	goto	l1828
  1132     01A4                     l1824:
  1133     01A4  1283               	bcf	3,5	;RP0=0, select bank0
  1134     01A5  1303               	bcf	3,6	;RP1=0, select bank0
  1135     01A6  0851               	movf	_addressC,w
  1136     01A7  120A  118A  25EE  120A  118A  	fcall	_EEPROM_read
  1137     01AC  3A00               	xorlw	0
  1138     01AD  1D03               	skipz
  1139     01AE  29B0               	goto	u1181
  1140     01AF  29B1               	goto	u1180
  1141     01B0                     u1181:
  1142     01B0  29B4               	goto	l1828
  1143     01B1                     u1180:
  1144     01B1                     l1826:
  1145                           
  1146                           ;proyecto2.c: 211:                   PORTCbits.RC0 = 0;
  1147     01B1  1283               	bcf	3,5	;RP0=0, select bank0
  1148     01B2  1303               	bcf	3,6	;RP1=0, select bank0
  1149     01B3  1007               	bcf	7,0	;volatile
  1150     01B4                     l1828:
  1151                           
  1152                           ;proyecto2.c: 213:               if (EEPROM_read(addressD) == 0xFF){
  1153     01B4  1283               	bcf	3,5	;RP0=0, select bank0
  1154     01B5  1303               	bcf	3,6	;RP1=0, select bank0
  1155     01B6  0850               	movf	_addressD,w
  1156     01B7  120A  118A  25EE  120A  118A  	fcall	_EEPROM_read
  1157     01BC  3AFF               	xorlw	255
  1158     01BD  1D03               	skipz
  1159     01BE  29C0               	goto	u1191
  1160     01BF  29C1               	goto	u1190
  1161     01C0                     u1191:
  1162     01C0  29C5               	goto	l1832
  1163     01C1                     u1190:
  1164     01C1                     l1830:
  1165                           
  1166                           ;proyecto2.c: 214:                   PORTDbits.RD1 = 1;
  1167     01C1  1283               	bcf	3,5	;RP0=0, select bank0
  1168     01C2  1303               	bcf	3,6	;RP1=0, select bank0
  1169     01C3  1488               	bsf	8,1	;volatile
  1170                           
  1171                           ;proyecto2.c: 215:               }else if (EEPROM_read(addressD) == 0x00){
  1172     01C4  29D5               	goto	l1838
  1173     01C5                     l1832:
  1174     01C5  1283               	bcf	3,5	;RP0=0, select bank0
  1175     01C6  1303               	bcf	3,6	;RP1=0, select bank0
  1176     01C7  0850               	movf	_addressD,w
  1177     01C8  120A  118A  25EE  120A  118A  	fcall	_EEPROM_read
  1178     01CD  3A00               	xorlw	0
  1179     01CE  1D03               	skipz
  1180     01CF  29D1               	goto	u1201
  1181     01D0  29D2               	goto	u1200
  1182     01D1                     u1201:
  1183     01D1  2891               	goto	l177
  1184     01D2                     u1200:
  1185     01D2                     l1834:
  1186                           
  1187                           ;proyecto2.c: 216:                   PORTDbits.RD1 = 0;
  1188     01D2  1283               	bcf	3,5	;RP0=0, select bank0
  1189     01D3  1303               	bcf	3,6	;RP1=0, select bank0
  1190     01D4  1088               	bcf	8,1	;volatile
  1191     01D5                     l1838:
  1192                           
  1193                           ; Switch on 2 bytes has been partitioned into a top level switch of size 1, and 1 sub-sw
      +                          itches
  1194                           ; Switch size 1, requested type "simple"
  1195                           ; Number of cases is 1, Range of values is 0 to 0
  1196                           ; switch strategies available:
  1197                           ; Name         Instructions Cycles
  1198                           ; simple_byte            4     3 (average)
  1199                           ; direct_byte           11     8 (fixed)
  1200                           ; jumptable            260     6 (fixed)
  1201                           ;	Chosen strategy is simple_byte
  1202     01D5  1283               	bcf	3,5	;RP0=0, select bank0
  1203     01D6  1303               	bcf	3,6	;RP1=0, select bank0
  1204     01D7  0846               	movf	_menu+1,w
  1205     01D8  3A00               	xorlw	0	; case 0
  1206     01D9  1903               	skipnz
  1207     01DA  29DC               	goto	l1890
  1208     01DB  29D5               	goto	l1838
  1209     01DC                     l1890:
  1210                           
  1211                           ; Switch size 1, requested type "simple"
  1212                           ; Number of cases is 3, Range of values is 1 to 3
  1213                           ; switch strategies available:
  1214                           ; Name         Instructions Cycles
  1215                           ; simple_byte           10     6 (average)
  1216                           ; direct_byte           20    11 (fixed)
  1217                           ; jumptable            263     9 (fixed)
  1218                           ;	Chosen strategy is simple_byte
  1219     01DC  0845               	movf	_menu,w
  1220     01DD  3A01               	xorlw	1	; case 1
  1221     01DE  1903               	skipnz
  1222     01DF  2844               	goto	l1734
  1223     01E0  3A03               	xorlw	3	; case 2
  1224     01E1  1903               	skipnz
  1225     01E2  2892               	goto	l1768
  1226     01E3  3A01               	xorlw	1	; case 3
  1227     01E4  1903               	skipnz
  1228     01E5  296F               	goto	l1810
  1229     01E6  29D5               	goto	l1838
  1230     01E7  120A  118A  280E   	ljmp	start
  1231     01EA                     __end_of_main:
  1232                           
  1233                           	psect	text1
  1234     04A3                     __ptext1:	
  1235 ;; *************** function _strcmp *****************
  1236 ;; Defined at:
  1237 ;;		line 33 in file "C:\Program Files\Microchip\xc8\v2.40\pic\sources\c90\common\strcmp.c"
  1238 ;; Parameters:    Size  Location     Type
  1239 ;;  s1              1    wreg     PTR const unsigned char 
  1240 ;;		 -> input(2), 
  1241 ;;  s2              1   14[BANK0 ] PTR const unsigned char 
  1242 ;;		 -> STR_4(2), STR_3(2), STR_2(2), STR_1(2), 
  1243 ;; Auto vars:     Size  Location     Type
  1244 ;;  s1              1   19[BANK0 ] PTR const unsigned char 
  1245 ;;		 -> input(2), 
  1246 ;;  r               1   18[BANK0 ] char 
  1247 ;; Return value:  Size  Location     Type
  1248 ;;                  2   14[BANK0 ] int 
  1249 ;; Registers used:
  1250 ;;		wreg, fsr0l, fsr0h, status,2, status,0, pclath
  1251 ;; Tracked objects:
  1252 ;;		On entry : 0/0
  1253 ;;		On exit  : 0/0
  1254 ;;		Unchanged: 0/0
  1255 ;; Data sizes:     COMMON   BANK0   BANK1   BANK3   BANK2
  1256 ;;      Params:         0       2       0       0       0
  1257 ;;      Locals:         0       2       0       0       0
  1258 ;;      Temps:          0       2       0       0       0
  1259 ;;      Totals:         0       6       0       0       0
  1260 ;;Total ram usage:        6 bytes
  1261 ;; Hardware stack levels used: 1
  1262 ;; Hardware stack levels required when called: 3
  1263 ;; This function calls:
  1264 ;;		Nothing
  1265 ;; This function is called by:
  1266 ;;		_main
  1267 ;; This function uses a non-reentrant model
  1268 ;;
  1269                           
  1270     04A3                     _strcmp:	
  1271                           ;psect for function _strcmp
  1272                           
  1273                           
  1274                           ;incstack = 0
  1275                           ; Regs used in _strcmp: [wreg-fsr0h+status,2+status,0+pclath]
  1276                           ;strcmp@s1 stored from wreg
  1277     04A3  1283               	bcf	3,5	;RP0=0, select bank0
  1278     04A4  1303               	bcf	3,6	;RP1=0, select bank0
  1279     04A5  00B3               	movwf	strcmp@s1
  1280     04A6                     l1610:
  1281     04A6  2CAF               	goto	l1616
  1282     04A7                     l1612:
  1283     04A7  3001               	movlw	1
  1284     04A8  00B0               	movwf	??_strcmp
  1285     04A9  0830               	movf	??_strcmp,w
  1286     04AA  07B3               	addwf	strcmp@s1,f
  1287     04AB                     l1614:
  1288     04AB  3001               	movlw	1
  1289     04AC  00B0               	movwf	??_strcmp
  1290     04AD  0830               	movf	??_strcmp,w
  1291     04AE  07AE               	addwf	strcmp@s2,f
  1292     04AF                     l1616:
  1293     04AF  082E               	movf	strcmp@s2,w
  1294     04B0  0084               	movwf	4
  1295     04B1  120A  118A  2600  120A  118A  	fcall	stringdir
  1296     04B6  00B0               	movwf	??_strcmp
  1297     04B7  0833               	movf	strcmp@s1,w
  1298     04B8  0084               	movwf	4
  1299     04B9  1383               	bcf	3,7	;select IRP bank0
  1300     04BA  0800               	movf	0,w
  1301     04BB  00B1               	movwf	??_strcmp+1
  1302     04BC  0830               	movf	??_strcmp,w
  1303     04BD  0231               	subwf	??_strcmp+1,w
  1304     04BE  00B2               	movwf	strcmp@r
  1305     04BF  0832               	movf	strcmp@r,w
  1306     04C0  1D03               	btfss	3,2
  1307     04C1  2CC3               	goto	u921
  1308     04C2  2CC4               	goto	u920
  1309     04C3                     u921:
  1310     04C3  2CCB               	goto	l1620
  1311     04C4                     u920:
  1312     04C4                     l1618:
  1313     04C4  0833               	movf	strcmp@s1,w
  1314     04C5  0084               	movwf	4
  1315     04C6  0800               	movf	0,w
  1316     04C7  1D03               	btfss	3,2
  1317     04C8  2CCA               	goto	u931
  1318     04C9  2CCB               	goto	u930
  1319     04CA                     u931:
  1320     04CA  2CA7               	goto	l1612
  1321     04CB                     u930:
  1322     04CB                     l1620:
  1323     04CB  0832               	movf	strcmp@r,w
  1324     04CC  00AE               	movwf	?_strcmp
  1325     04CD  01AF               	clrf	?_strcmp+1
  1326     04CE  1BAE               	btfsc	?_strcmp,7
  1327     04CF  03AF               	decf	?_strcmp+1,f
  1328     04D0                     l778:
  1329     04D0  0008               	return
  1330     04D1                     __end_of_strcmp:
  1331                           
  1332                           	psect	text2
  1333     0340                     __ptext2:	
  1334 ;; *************** function _setup *****************
  1335 ;; Defined at:
  1336 ;;		line 227 in file "proyecto2.c"
  1337 ;; Parameters:    Size  Location     Type
  1338 ;;		None
  1339 ;; Auto vars:     Size  Location     Type
  1340 ;;		None
  1341 ;; Return value:  Size  Location     Type
  1342 ;;                  1    wreg      void 
  1343 ;; Registers used:
  1344 ;;		wreg, status,2, status,0
  1345 ;; Tracked objects:
  1346 ;;		On entry : 0/0
  1347 ;;		On exit  : 0/0
  1348 ;;		Unchanged: 0/0
  1349 ;; Data sizes:     COMMON   BANK0   BANK1   BANK3   BANK2
  1350 ;;      Params:         0       0       0       0       0
  1351 ;;      Locals:         0       0       0       0       0
  1352 ;;      Temps:          0       0       0       0       0
  1353 ;;      Totals:         0       0       0       0       0
  1354 ;;Total ram usage:        0 bytes
  1355 ;; Hardware stack levels used: 1
  1356 ;; Hardware stack levels required when called: 3
  1357 ;; This function calls:
  1358 ;;		Nothing
  1359 ;; This function is called by:
  1360 ;;		_main
  1361 ;; This function uses a non-reentrant model
  1362 ;;
  1363                           
  1364     0340                     _setup:	
  1365                           ;psect for function _setup
  1366                           
  1367     0340                     l1514:	
  1368                           ;incstack = 0
  1369                           ; Regs used in _setup: [wreg+status,2+status,0]
  1370                           
  1371                           
  1372                           ;proyecto2.c: 228:     OPTION_REGbits.nRBPU=0;
  1373     0340  1683               	bsf	3,5	;RP0=1, select bank1
  1374     0341  1303               	bcf	3,6	;RP1=0, select bank1
  1375     0342  1381               	bcf	1,7	;volatile
  1376     0343                     l1516:
  1377                           
  1378                           ;proyecto2.c: 229:     ANSEL = 0b00001111;
  1379     0343  300F               	movlw	15
  1380     0344  1683               	bsf	3,5	;RP0=1, select bank3
  1381     0345  1703               	bsf	3,6	;RP1=1, select bank3
  1382     0346  0088               	movwf	8	;volatile
  1383     0347                     l1518:
  1384                           
  1385                           ;proyecto2.c: 230:     ANSELH = 0;
  1386     0347  0189               	clrf	9	;volatile
  1387     0348                     l1520:
  1388                           
  1389                           ;proyecto2.c: 231:     TRISD = 0;
  1390     0348  1683               	bsf	3,5	;RP0=1, select bank1
  1391     0349  1303               	bcf	3,6	;RP1=0, select bank1
  1392     034A  0188               	clrf	8	;volatile
  1393     034B                     l1522:
  1394                           
  1395                           ;proyecto2.c: 232:     PORTD = 0;
  1396     034B  1283               	bcf	3,5	;RP0=0, select bank0
  1397     034C  1303               	bcf	3,6	;RP1=0, select bank0
  1398     034D  0188               	clrf	8	;volatile
  1399     034E                     l1524:
  1400                           
  1401                           ;proyecto2.c: 233:     TRISA = 0XFF;
  1402     034E  30FF               	movlw	255
  1403     034F  1683               	bsf	3,5	;RP0=1, select bank1
  1404     0350  1303               	bcf	3,6	;RP1=0, select bank1
  1405     0351  0085               	movwf	5	;volatile
  1406                           
  1407                           ;proyecto2.c: 234:     PORTA = 0;
  1408     0352  1283               	bcf	3,5	;RP0=0, select bank0
  1409     0353  1303               	bcf	3,6	;RP1=0, select bank0
  1410     0354  0185               	clrf	5	;volatile
  1411     0355                     l1526:
  1412                           
  1413                           ;proyecto2.c: 235:     TRISB = 0xFF;
  1414     0355  30FF               	movlw	255
  1415     0356  1683               	bsf	3,5	;RP0=1, select bank1
  1416     0357  1303               	bcf	3,6	;RP1=0, select bank1
  1417     0358  0086               	movwf	6	;volatile
  1418     0359                     l1528:
  1419                           
  1420                           ;proyecto2.c: 236:     PORTB = 0;
  1421     0359  1283               	bcf	3,5	;RP0=0, select bank0
  1422     035A  1303               	bcf	3,6	;RP1=0, select bank0
  1423     035B  0186               	clrf	6	;volatile
  1424                           
  1425                           ;proyecto2.c: 237:     WPUB = 0xFF;
  1426     035C  30FF               	movlw	255
  1427     035D  1683               	bsf	3,5	;RP0=1, select bank1
  1428     035E  1303               	bcf	3,6	;RP1=0, select bank1
  1429     035F  0095               	movwf	21	;volatile
  1430                           
  1431                           ;proyecto2.c: 238:     IOCB = 0xFF;
  1432     0360  30FF               	movlw	255
  1433     0361  0096               	movwf	22	;volatile
  1434     0362                     l1530:
  1435                           
  1436                           ;proyecto2.c: 239:     TRISE = 0;
  1437     0362  0189               	clrf	9	;volatile
  1438     0363                     l1532:
  1439                           
  1440                           ;proyecto2.c: 240:     PORTE = 0;
  1441     0363  1283               	bcf	3,5	;RP0=0, select bank0
  1442     0364  1303               	bcf	3,6	;RP1=0, select bank0
  1443     0365  0189               	clrf	9	;volatile
  1444     0366                     l1534:
  1445                           
  1446                           ;proyecto2.c: 242:     TRISCbits.TRISC0 = 0;
  1447     0366  1683               	bsf	3,5	;RP0=1, select bank1
  1448     0367  1303               	bcf	3,6	;RP1=0, select bank1
  1449     0368  1007               	bcf	7,0	;volatile
  1450     0369                     l1536:
  1451                           
  1452                           ;proyecto2.c: 245:     OSCCONbits.IRCF = 0b011;
  1453     0369  080F               	movf	15,w	;volatile
  1454     036A  398F               	andlw	-113
  1455     036B  3830               	iorlw	48
  1456     036C  008F               	movwf	15	;volatile
  1457     036D                     l1538:
  1458                           
  1459                           ;proyecto2.c: 246:     OSCCONbits.SCS = 1;
  1460     036D  140F               	bsf	15,0	;volatile
  1461     036E                     l1540:
  1462                           
  1463                           ;proyecto2.c: 249:     TXSTAbits.SYNC = 0;
  1464     036E  1218               	bcf	24,4	;volatile
  1465     036F                     l1542:
  1466                           
  1467                           ;proyecto2.c: 250:     TXSTAbits.BRGH = 1;
  1468     036F  1518               	bsf	24,2	;volatile
  1469     0370                     l1544:
  1470                           
  1471                           ;proyecto2.c: 251:     BAUDCTLbits.BRG16 = 1;
  1472     0370  1683               	bsf	3,5	;RP0=1, select bank3
  1473     0371  1703               	bsf	3,6	;RP1=1, select bank3
  1474     0372  1587               	bsf	7,3	;volatile
  1475     0373                     l1546:
  1476                           
  1477                           ;proyecto2.c: 252:     SPBRG = 25;
  1478     0373  3019               	movlw	25
  1479     0374  1683               	bsf	3,5	;RP0=1, select bank1
  1480     0375  1303               	bcf	3,6	;RP1=0, select bank1
  1481     0376  0099               	movwf	25	;volatile
  1482     0377                     l1548:
  1483                           
  1484                           ;proyecto2.c: 253:     SPBRGH = 0;
  1485     0377  019A               	clrf	26	;volatile
  1486     0378                     l1550:
  1487                           
  1488                           ;proyecto2.c: 255:     RCSTAbits.SPEN = 1;
  1489     0378  1283               	bcf	3,5	;RP0=0, select bank0
  1490     0379  1303               	bcf	3,6	;RP1=0, select bank0
  1491     037A  1798               	bsf	24,7	;volatile
  1492     037B                     l1552:
  1493                           
  1494                           ;proyecto2.c: 256:     RCSTAbits.RX9 = 0;
  1495     037B  1318               	bcf	24,6	;volatile
  1496     037C                     l1554:
  1497                           
  1498                           ;proyecto2.c: 257:     RCSTAbits.CREN = 1;
  1499     037C  1618               	bsf	24,4	;volatile
  1500     037D                     l1556:
  1501                           
  1502                           ;proyecto2.c: 258:     TXSTAbits.TXEN = 1;
  1503     037D  1683               	bsf	3,5	;RP0=1, select bank1
  1504     037E  1303               	bcf	3,6	;RP1=0, select bank1
  1505     037F  1698               	bsf	24,5	;volatile
  1506     0380                     l1558:
  1507                           
  1508                           ;proyecto2.c: 261:     ADCON0bits.ADCS = 0b01;
  1509     0380  1283               	bcf	3,5	;RP0=0, select bank0
  1510     0381  1303               	bcf	3,6	;RP1=0, select bank0
  1511     0382  081F               	movf	31,w	;volatile
  1512     0383  393F               	andlw	-193
  1513     0384  3840               	iorlw	64
  1514     0385  009F               	movwf	31	;volatile
  1515     0386                     l1560:
  1516                           
  1517                           ;proyecto2.c: 262:     ADCON1bits.VCFG0 = 0;
  1518     0386  1683               	bsf	3,5	;RP0=1, select bank1
  1519     0387  1303               	bcf	3,6	;RP1=0, select bank1
  1520     0388  121F               	bcf	31,4	;volatile
  1521     0389                     l1562:
  1522                           
  1523                           ;proyecto2.c: 263:     ADCON1bits.VCFG1 = 0;
  1524     0389  129F               	bcf	31,5	;volatile
  1525     038A                     l1564:
  1526                           
  1527                           ;proyecto2.c: 264:     ADCON0bits.CHS = 0;
  1528     038A  30C3               	movlw	-61
  1529     038B  1283               	bcf	3,5	;RP0=0, select bank0
  1530     038C  1303               	bcf	3,6	;RP1=0, select bank0
  1531     038D  059F               	andwf	31,f	;volatile
  1532     038E                     l1566:
  1533                           
  1534                           ;proyecto2.c: 265:     ADCON1bits.ADFM = 0;
  1535     038E  1683               	bsf	3,5	;RP0=1, select bank1
  1536     038F  1303               	bcf	3,6	;RP1=0, select bank1
  1537     0390  139F               	bcf	31,7	;volatile
  1538     0391                     l1568:
  1539                           
  1540                           ;proyecto2.c: 266:     ADCON0bits.ADON = 1;
  1541     0391  1283               	bcf	3,5	;RP0=0, select bank0
  1542     0392  1303               	bcf	3,6	;RP1=0, select bank0
  1543     0393  141F               	bsf	31,0	;volatile
  1544     0394                     l1570:
  1545                           
  1546                           ;proyecto2.c: 267:     _delay((unsigned long)((40)*(500000/4000000.0)));
  1547     0394  2B95               	nop2	;2 cycle nop
  1548     0395  2B96               	nop2	;2 cycle nop
  1549     0396  0000               	nop
  1550     0397                     l1572:
  1551                           
  1552                           ;proyecto2.c: 271:     TRISCbits.TRISC2 = 1;
  1553     0397  1683               	bsf	3,5	;RP0=1, select bank1
  1554     0398  1303               	bcf	3,6	;RP1=0, select bank1
  1555     0399  1507               	bsf	7,2	;volatile
  1556     039A                     l1574:
  1557                           
  1558                           ;proyecto2.c: 272:     TRISCbits.TRISC1 = 1;
  1559     039A  1487               	bsf	7,1	;volatile
  1560     039B                     l1576:
  1561                           
  1562                           ;proyecto2.c: 273:     PR2 = 0b10011011;
  1563     039B  309B               	movlw	155
  1564     039C  0092               	movwf	18	;volatile
  1565     039D                     l1578:
  1566                           
  1567                           ;proyecto2.c: 276:     CCP1CON = 0;
  1568     039D  1283               	bcf	3,5	;RP0=0, select bank0
  1569     039E  1303               	bcf	3,6	;RP1=0, select bank0
  1570     039F  0197               	clrf	23	;volatile
  1571     03A0                     l1580:
  1572                           
  1573                           ;proyecto2.c: 277:     CCP2CON = 0;
  1574     03A0  019D               	clrf	29	;volatile
  1575     03A1                     l1582:
  1576                           
  1577                           ;proyecto2.c: 278:     CCP1CONbits.P1M = 0;
  1578     03A1  303F               	movlw	-193
  1579     03A2  0597               	andwf	23,f	;volatile
  1580     03A3                     l1584:
  1581                           
  1582                           ;proyecto2.c: 279:     CCP2CONbits.CCP2M = 0b1100;
  1583     03A3  081D               	movf	29,w	;volatile
  1584     03A4  39F0               	andlw	-16
  1585     03A5  380C               	iorlw	12
  1586     03A6  009D               	movwf	29	;volatile
  1587     03A7                     l1586:
  1588                           
  1589                           ;proyecto2.c: 280:     CCP1CONbits.CCP1M = 0b1100;
  1590     03A7  0817               	movf	23,w	;volatile
  1591     03A8  39F0               	andlw	-16
  1592     03A9  380C               	iorlw	12
  1593     03AA  0097               	movwf	23	;volatile
  1594     03AB                     l1588:
  1595                           
  1596                           ;proyecto2.c: 282:     CCPR1L = 16>>2;
  1597     03AB  3004               	movlw	4
  1598     03AC  0095               	movwf	21	;volatile
  1599     03AD                     l1590:
  1600                           
  1601                           ;proyecto2.c: 283:     CCPR2L = 16>>2;
  1602     03AD  3004               	movlw	4
  1603     03AE  009B               	movwf	27	;volatile
  1604     03AF                     l1592:
  1605                           
  1606                           ;proyecto2.c: 284:     CCP1CONbits.DC1B0 = 48 & 0b11;
  1607     03AF  1217               	bcf	23,4	;volatile
  1608     03B0                     l1594:
  1609                           
  1610                           ;proyecto2.c: 285:     CCP2CONbits.DC2B0 = 48 & 0b11;
  1611     03B0  121D               	bcf	29,4	;volatile
  1612     03B1                     l1596:
  1613                           
  1614                           ;proyecto2.c: 287:     PIR1bits.TMR2IF = 0;
  1615     03B1  108C               	bcf	12,1	;volatile
  1616     03B2                     l1598:
  1617                           
  1618                           ;proyecto2.c: 288:     T2CONbits.T2CKPS = 0b11;
  1619     03B2  3003               	movlw	3
  1620     03B3  0492               	iorwf	18,f	;volatile
  1621     03B4                     l1600:
  1622                           
  1623                           ;proyecto2.c: 289:     T2CONbits.TMR2ON = 1;
  1624     03B4  1512               	bsf	18,2	;volatile
  1625     03B5                     l1602:
  1626                           
  1627                           ;proyecto2.c: 290:     T2CON = 0b00000111 ;
  1628     03B5  3007               	movlw	7
  1629     03B6  0092               	movwf	18	;volatile
  1630     03B7                     l206:	
  1631                           ;proyecto2.c: 292:     while(!PIR1bits.TMR2IF);
  1632                           
  1633     03B7  1C8C               	btfss	12,1	;volatile
  1634     03B8  2BBA               	goto	u901
  1635     03B9  2BBB               	goto	u900
  1636     03BA                     u901:
  1637     03BA  2BB7               	goto	l206
  1638     03BB                     u900:
  1639     03BB                     l208:
  1640                           
  1641                           ;proyecto2.c: 293:     PIR1bits.TMR2IF = 0;
  1642     03BB  108C               	bcf	12,1	;volatile
  1643                           
  1644                           ;proyecto2.c: 295:     TRISCbits.TRISC2 = 0;
  1645     03BC  1683               	bsf	3,5	;RP0=1, select bank1
  1646     03BD  1303               	bcf	3,6	;RP1=0, select bank1
  1647     03BE  1107               	bcf	7,2	;volatile
  1648                           
  1649                           ;proyecto2.c: 296:     TRISCbits.TRISC1 = 0;
  1650     03BF  1087               	bcf	7,1	;volatile
  1651                           
  1652                           ;proyecto2.c: 299:     INTCONbits.RBIE=1;
  1653     03C0  158B               	bsf	11,3	;volatile
  1654                           
  1655                           ;proyecto2.c: 300:     INTCONbits.RBIF=0;
  1656     03C1  100B               	bcf	11,0	;volatile
  1657                           
  1658                           ;proyecto2.c: 301:     PIR1bits.ADIF = 0;
  1659     03C2  1283               	bcf	3,5	;RP0=0, select bank0
  1660     03C3  1303               	bcf	3,6	;RP1=0, select bank0
  1661     03C4  130C               	bcf	12,6	;volatile
  1662                           
  1663                           ;proyecto2.c: 303:     PIE1bits.ADIE = 1;
  1664     03C5  1683               	bsf	3,5	;RP0=1, select bank1
  1665     03C6  1303               	bcf	3,6	;RP1=0, select bank1
  1666     03C7  170C               	bsf	12,6	;volatile
  1667                           
  1668                           ;proyecto2.c: 304:     INTCONbits.PEIE = 1;
  1669     03C8  170B               	bsf	11,6	;volatile
  1670                           
  1671                           ;proyecto2.c: 305:     INTCONbits.GIE = 1;
  1672     03C9  178B               	bsf	11,7	;volatile
  1673                           
  1674                           ;proyecto2.c: 307:     PIR1bits.RCIF = 0;
  1675     03CA  1283               	bcf	3,5	;RP0=0, select bank0
  1676     03CB  1303               	bcf	3,6	;RP1=0, select bank0
  1677     03CC  128C               	bcf	12,5	;volatile
  1678                           
  1679                           ;proyecto2.c: 308:     PIE1bits.RCIE = 0;
  1680     03CD  1683               	bsf	3,5	;RP0=1, select bank1
  1681     03CE  1303               	bcf	3,6	;RP1=0, select bank1
  1682     03CF  128C               	bcf	12,5	;volatile
  1683     03D0                     l209:
  1684     03D0  0008               	return
  1685     03D1                     __end_of_setup:
  1686                           
  1687                           	psect	text3
  1688     04D1                     __ptext3:	
  1689 ;; *************** function _map4 *****************
  1690 ;; Defined at:
  1691 ;;		line 350 in file "proyecto2.c"
  1692 ;; Parameters:    Size  Location     Type
  1693 ;;  input           2   29[BANK0 ] int 
  1694 ;; Auto vars:     Size  Location     Type
  1695 ;;  outputMin       2    0        int 
  1696 ;;  inputMin        2    0        int 
  1697 ;;  output          2   31[BANK0 ] int 
  1698 ;;  outputMax       2    0        int 
  1699 ;;  inputMax        2    0        int 
  1700 ;; Return value:  Size  Location     Type
  1701 ;;                  2   29[BANK0 ] int 
  1702 ;; Registers used:
  1703 ;;		wreg, status,2, status,0, pclath, cstack
  1704 ;; Tracked objects:
  1705 ;;		On entry : 0/0
  1706 ;;		On exit  : 0/0
  1707 ;;		Unchanged: 0/0
  1708 ;; Data sizes:     COMMON   BANK0   BANK1   BANK3   BANK2
  1709 ;;      Params:         0       2       0       0       0
  1710 ;;      Locals:         0       2       0       0       0
  1711 ;;      Temps:          0       0       0       0       0
  1712 ;;      Totals:         0       4       0       0       0
  1713 ;;Total ram usage:        4 bytes
  1714 ;; Hardware stack levels used: 1
  1715 ;; Hardware stack levels required when called: 4
  1716 ;; This function calls:
  1717 ;;		___awdiv
  1718 ;;		___wmul
  1719 ;; This function is called by:
  1720 ;;		_main
  1721 ;; This function uses a non-reentrant model
  1722 ;;
  1723                           
  1724     04D1                     _map4:	
  1725                           ;psect for function _map4
  1726                           
  1727     04D1                     l1636:	
  1728                           ;incstack = 0
  1729                           ; Regs used in _map4: [wreg+status,2+status,0+pclath+cstack]
  1730                           
  1731     04D1                     l1638:
  1732     04D1                     l1640:
  1733     04D1                     l1642:
  1734     04D1                     l1644:
  1735                           
  1736                           ;proyecto2.c: 358:     int output = ((input - inputMin) * (outputMax - outputMin)) / (in
      +                          putMax - inputMin) + outputMin;
  1737     04D1  307F               	movlw	127
  1738     04D2  1283               	bcf	3,5	;RP0=0, select bank0
  1739     04D3  1303               	bcf	3,6	;RP1=0, select bank0
  1740     04D4  00B4               	movwf	___awdiv@divisor
  1741     04D5  3000               	movlw	0
  1742     04D6  00B5               	movwf	___awdiv@divisor+1
  1743     04D7  083E               	movf	map4@input+1,w
  1744     04D8  00AF               	movwf	___wmul@multiplier+1
  1745     04D9  083D               	movf	map4@input,w
  1746     04DA  00AE               	movwf	___wmul@multiplier
  1747     04DB  3038               	movlw	56
  1748     04DC  00B0               	movwf	___wmul@multiplicand
  1749     04DD  3000               	movlw	0
  1750     04DE  00B1               	movwf	___wmul@multiplicand+1
  1751     04DF  120A  118A  2581  120A  118A  	fcall	___wmul
  1752     04E4  1283               	bcf	3,5	;RP0=0, select bank0
  1753     04E5  1303               	bcf	3,6	;RP1=0, select bank0
  1754     04E6  082F               	movf	?___wmul+1,w
  1755     04E7  00B7               	movwf	___awdiv@dividend+1
  1756     04E8  082E               	movf	?___wmul,w
  1757     04E9  00B6               	movwf	___awdiv@dividend
  1758     04EA  120A  118A  23D1  120A  118A  	fcall	___awdiv
  1759     04EF  1283               	bcf	3,5	;RP0=0, select bank0
  1760     04F0  1303               	bcf	3,6	;RP1=0, select bank0
  1761     04F1  0834               	movf	?___awdiv,w
  1762     04F2  3E09               	addlw	9
  1763     04F3  00BF               	movwf	map4@output
  1764     04F4  0835               	movf	?___awdiv+1,w
  1765     04F5  1803               	skipnc
  1766     04F6  3E01               	addlw	1
  1767     04F7  3E00               	addlw	0
  1768     04F8  00C0               	movwf	map4@output+1
  1769     04F9                     l1646:
  1770                           
  1771                           ;proyecto2.c: 360:     return output;
  1772     04F9  0840               	movf	map4@output+1,w
  1773     04FA  00BE               	movwf	?_map4+1
  1774     04FB  083F               	movf	map4@output,w
  1775     04FC  00BD               	movwf	?_map4
  1776     04FD                     l221:
  1777     04FD  0008               	return
  1778     04FE                     __end_of_map4:
  1779                           
  1780                           	psect	text4
  1781     04FE                     __ptext4:	
  1782 ;; *************** function _map3 *****************
  1783 ;; Defined at:
  1784 ;;		line 338 in file "proyecto2.c"
  1785 ;; Parameters:    Size  Location     Type
  1786 ;;  input           2   29[BANK0 ] int 
  1787 ;; Auto vars:     Size  Location     Type
  1788 ;;  outputMin       2    0        int 
  1789 ;;  inputMin        2    0        int 
  1790 ;;  output          2   33[BANK0 ] int 
  1791 ;;  outputMax       2   31[BANK0 ] int 
  1792 ;;  inputMax        2    0        int 
  1793 ;; Return value:  Size  Location     Type
  1794 ;;                  2   29[BANK0 ] int 
  1795 ;; Registers used:
  1796 ;;		wreg, status,2, status,0, pclath, cstack
  1797 ;; Tracked objects:
  1798 ;;		On entry : 0/0
  1799 ;;		On exit  : 0/0
  1800 ;;		Unchanged: 0/0
  1801 ;; Data sizes:     COMMON   BANK0   BANK1   BANK3   BANK2
  1802 ;;      Params:         0       2       0       0       0
  1803 ;;      Locals:         0       4       0       0       0
  1804 ;;      Temps:          0       0       0       0       0
  1805 ;;      Totals:         0       6       0       0       0
  1806 ;;Total ram usage:        6 bytes
  1807 ;; Hardware stack levels used: 1
  1808 ;; Hardware stack levels required when called: 4
  1809 ;; This function calls:
  1810 ;;		___awdiv
  1811 ;;		___wmul
  1812 ;; This function is called by:
  1813 ;;		_main
  1814 ;; This function uses a non-reentrant model
  1815 ;;
  1816                           
  1817     04FE                     _map3:	
  1818                           ;psect for function _map3
  1819                           
  1820     04FE                     l1624:	
  1821                           ;incstack = 0
  1822                           ; Regs used in _map3: [wreg+status,2+status,0+pclath+cstack]
  1823                           
  1824     04FE                     l1626:
  1825     04FE                     l1628:
  1826                           
  1827                           ;proyecto2.c: 343:     int outputMax = 140;
  1828     04FE  308C               	movlw	140
  1829     04FF  1283               	bcf	3,5	;RP0=0, select bank0
  1830     0500  1303               	bcf	3,6	;RP1=0, select bank0
  1831     0501  00BF               	movwf	map3@outputMax
  1832     0502  3000               	movlw	0
  1833     0503  00C0               	movwf	map3@outputMax+1
  1834     0504                     l1630:
  1835                           
  1836                           ;proyecto2.c: 346:     int output = ((input - inputMin) * (outputMax - outputMin)) / (in
      +                          putMax - inputMin) + outputMin;
  1837     0504  307F               	movlw	127
  1838     0505  00B4               	movwf	___awdiv@divisor
  1839     0506  3000               	movlw	0
  1840     0507  00B5               	movwf	___awdiv@divisor+1
  1841     0508  083E               	movf	map3@input+1,w
  1842     0509  00AF               	movwf	___wmul@multiplier+1
  1843     050A  083D               	movf	map3@input,w
  1844     050B  00AE               	movwf	___wmul@multiplier
  1845     050C  308C               	movlw	140
  1846     050D  00B0               	movwf	___wmul@multiplicand
  1847     050E  3000               	movlw	0
  1848     050F  00B1               	movwf	___wmul@multiplicand+1
  1849     0510  120A  118A  2581  120A  118A  	fcall	___wmul
  1850     0515  1283               	bcf	3,5	;RP0=0, select bank0
  1851     0516  1303               	bcf	3,6	;RP1=0, select bank0
  1852     0517  082F               	movf	?___wmul+1,w
  1853     0518  00B7               	movwf	___awdiv@dividend+1
  1854     0519  082E               	movf	?___wmul,w
  1855     051A  00B6               	movwf	___awdiv@dividend
  1856     051B  120A  118A  23D1  120A  118A  	fcall	___awdiv
  1857     0520  1283               	bcf	3,5	;RP0=0, select bank0
  1858     0521  1303               	bcf	3,6	;RP1=0, select bank0
  1859     0522  0835               	movf	?___awdiv+1,w
  1860     0523  00C2               	movwf	map3@output+1
  1861     0524  0834               	movf	?___awdiv,w
  1862     0525  00C1               	movwf	map3@output
  1863     0526                     l1632:
  1864                           
  1865                           ;proyecto2.c: 348:     return output;
  1866     0526  0842               	movf	map3@output+1,w
  1867     0527  00BE               	movwf	?_map3+1
  1868     0528  0841               	movf	map3@output,w
  1869     0529  00BD               	movwf	?_map3
  1870     052A                     l218:
  1871     052A  0008               	return
  1872     052B                     __end_of_map3:
  1873                           
  1874                           	psect	text5
  1875     0581                     __ptext5:	
  1876 ;; *************** function ___wmul *****************
  1877 ;; Defined at:
  1878 ;;		line 15 in file "C:\Program Files\Microchip\xc8\v2.40\pic\sources\c90\common\Umul16.c"
  1879 ;; Parameters:    Size  Location     Type
  1880 ;;  multiplier      2   14[BANK0 ] unsigned int 
  1881 ;;  multiplicand    2   16[BANK0 ] unsigned int 
  1882 ;; Auto vars:     Size  Location     Type
  1883 ;;  product         2   18[BANK0 ] unsigned int 
  1884 ;; Return value:  Size  Location     Type
  1885 ;;                  2   14[BANK0 ] unsigned int 
  1886 ;; Registers used:
  1887 ;;		wreg, status,2, status,0
  1888 ;; Tracked objects:
  1889 ;;		On entry : 0/0
  1890 ;;		On exit  : 0/0
  1891 ;;		Unchanged: 0/0
  1892 ;; Data sizes:     COMMON   BANK0   BANK1   BANK3   BANK2
  1893 ;;      Params:         0       4       0       0       0
  1894 ;;      Locals:         0       2       0       0       0
  1895 ;;      Temps:          0       0       0       0       0
  1896 ;;      Totals:         0       6       0       0       0
  1897 ;;Total ram usage:        6 bytes
  1898 ;; Hardware stack levels used: 1
  1899 ;; Hardware stack levels required when called: 3
  1900 ;; This function calls:
  1901 ;;		Nothing
  1902 ;; This function is called by:
  1903 ;;		_map3
  1904 ;;		_map4
  1905 ;; This function uses a non-reentrant model
  1906 ;;
  1907                           
  1908     0581                     ___wmul:	
  1909                           ;psect for function ___wmul
  1910                           
  1911     0581                     l1362:	
  1912                           ;incstack = 0
  1913                           ; Regs used in ___wmul: [wreg+status,2+status,0]
  1914                           
  1915     0581  1283               	bcf	3,5	;RP0=0, select bank0
  1916     0582  1303               	bcf	3,6	;RP1=0, select bank0
  1917     0583  01B2               	clrf	___wmul@product
  1918     0584  01B3               	clrf	___wmul@product+1
  1919     0585                     l1364:
  1920     0585  1C2E               	btfss	___wmul@multiplier,0
  1921     0586  2D88               	goto	u611
  1922     0587  2D89               	goto	u610
  1923     0588                     u611:
  1924     0588  2D8F               	goto	l322
  1925     0589                     u610:
  1926     0589                     l1366:
  1927     0589  0830               	movf	___wmul@multiplicand,w
  1928     058A  07B2               	addwf	___wmul@product,f
  1929     058B  1803               	skipnc
  1930     058C  0AB3               	incf	___wmul@product+1,f
  1931     058D  0831               	movf	___wmul@multiplicand+1,w
  1932     058E  07B3               	addwf	___wmul@product+1,f
  1933     058F                     l322:
  1934     058F  3001               	movlw	1
  1935     0590                     u625:
  1936     0590  1003               	clrc
  1937     0591  0DB0               	rlf	___wmul@multiplicand,f
  1938     0592  0DB1               	rlf	___wmul@multiplicand+1,f
  1939     0593  3EFF               	addlw	-1
  1940     0594  1D03               	skipz
  1941     0595  2D90               	goto	u625
  1942     0596                     l1368:
  1943     0596  3001               	movlw	1
  1944     0597                     u635:
  1945     0597  1003               	clrc
  1946     0598  0CAF               	rrf	___wmul@multiplier+1,f
  1947     0599  0CAE               	rrf	___wmul@multiplier,f
  1948     059A  3EFF               	addlw	-1
  1949     059B  1D03               	skipz
  1950     059C  2D97               	goto	u635
  1951     059D                     l1370:
  1952     059D  082E               	movf	___wmul@multiplier,w
  1953     059E  042F               	iorwf	___wmul@multiplier+1,w
  1954     059F  1D03               	btfss	3,2
  1955     05A0  2DA2               	goto	u641
  1956     05A1  2DA3               	goto	u640
  1957     05A2                     u641:
  1958     05A2  2D85               	goto	l1364
  1959     05A3                     u640:
  1960     05A3                     l1372:
  1961     05A3  0833               	movf	___wmul@product+1,w
  1962     05A4  00AF               	movwf	?___wmul+1
  1963     05A5  0832               	movf	___wmul@product,w
  1964     05A6  00AE               	movwf	?___wmul
  1965     05A7                     l324:
  1966     05A7  0008               	return
  1967     05A8                     __end_of___wmul:
  1968                           
  1969                           	psect	text6
  1970     03D1                     __ptext6:	
  1971 ;; *************** function ___awdiv *****************
  1972 ;; Defined at:
  1973 ;;		line 5 in file "C:\Program Files\Microchip\xc8\v2.40\pic\sources\c90\common\awdiv.c"
  1974 ;; Parameters:    Size  Location     Type
  1975 ;;  divisor         2   20[BANK0 ] int 
  1976 ;;  dividend        2   22[BANK0 ] int 
  1977 ;; Auto vars:     Size  Location     Type
  1978 ;;  quotient        2   27[BANK0 ] int 
  1979 ;;  sign            1   26[BANK0 ] unsigned char 
  1980 ;;  counter         1   25[BANK0 ] unsigned char 
  1981 ;; Return value:  Size  Location     Type
  1982 ;;                  2   20[BANK0 ] int 
  1983 ;; Registers used:
  1984 ;;		wreg, status,2, status,0
  1985 ;; Tracked objects:
  1986 ;;		On entry : 0/0
  1987 ;;		On exit  : 0/0
  1988 ;;		Unchanged: 0/0
  1989 ;; Data sizes:     COMMON   BANK0   BANK1   BANK3   BANK2
  1990 ;;      Params:         0       4       0       0       0
  1991 ;;      Locals:         0       4       0       0       0
  1992 ;;      Temps:          0       1       0       0       0
  1993 ;;      Totals:         0       9       0       0       0
  1994 ;;Total ram usage:        9 bytes
  1995 ;; Hardware stack levels used: 1
  1996 ;; Hardware stack levels required when called: 3
  1997 ;; This function calls:
  1998 ;;		Nothing
  1999 ;; This function is called by:
  2000 ;;		_map3
  2001 ;;		_map4
  2002 ;; This function uses a non-reentrant model
  2003 ;;
  2004                           
  2005     03D1                     ___awdiv:	
  2006                           ;psect for function ___awdiv
  2007                           
  2008     03D1                     l1376:	
  2009                           ;incstack = 0
  2010                           ; Regs used in ___awdiv: [wreg+status,2+status,0]
  2011                           
  2012     03D1  1283               	bcf	3,5	;RP0=0, select bank0
  2013     03D2  1303               	bcf	3,6	;RP1=0, select bank0
  2014     03D3  01BA               	clrf	___awdiv@sign
  2015     03D4                     l1378:
  2016     03D4  1FB5               	btfss	___awdiv@divisor+1,7
  2017     03D5  2BD7               	goto	u651
  2018     03D6  2BD8               	goto	u650
  2019     03D7                     u651:
  2020     03D7  2BDF               	goto	l1384
  2021     03D8                     u650:
  2022     03D8                     l1380:
  2023     03D8  09B4               	comf	___awdiv@divisor,f
  2024     03D9  09B5               	comf	___awdiv@divisor+1,f
  2025     03DA  0AB4               	incf	___awdiv@divisor,f
  2026     03DB  1903               	skipnz
  2027     03DC  0AB5               	incf	___awdiv@divisor+1,f
  2028     03DD                     l1382:
  2029     03DD  01BA               	clrf	___awdiv@sign
  2030     03DE  0ABA               	incf	___awdiv@sign,f
  2031     03DF                     l1384:
  2032     03DF  1FB7               	btfss	___awdiv@dividend+1,7
  2033     03E0  2BE2               	goto	u661
  2034     03E1  2BE3               	goto	u660
  2035     03E2                     u661:
  2036     03E2  2BEC               	goto	l1390
  2037     03E3                     u660:
  2038     03E3                     l1386:
  2039     03E3  09B6               	comf	___awdiv@dividend,f
  2040     03E4  09B7               	comf	___awdiv@dividend+1,f
  2041     03E5  0AB6               	incf	___awdiv@dividend,f
  2042     03E6  1903               	skipnz
  2043     03E7  0AB7               	incf	___awdiv@dividend+1,f
  2044     03E8                     l1388:
  2045     03E8  3001               	movlw	1
  2046     03E9  00B8               	movwf	??___awdiv
  2047     03EA  0838               	movf	??___awdiv,w
  2048     03EB  06BA               	xorwf	___awdiv@sign,f
  2049     03EC                     l1390:
  2050     03EC  01BB               	clrf	___awdiv@quotient
  2051     03ED  01BC               	clrf	___awdiv@quotient+1
  2052     03EE                     l1392:
  2053     03EE  0834               	movf	___awdiv@divisor,w
  2054     03EF  0435               	iorwf	___awdiv@divisor+1,w
  2055     03F0  1903               	btfsc	3,2
  2056     03F1  2BF3               	goto	u671
  2057     03F2  2BF4               	goto	u670
  2058     03F3                     u671:
  2059     03F3  2C2B               	goto	l1412
  2060     03F4                     u670:
  2061     03F4                     l1394:
  2062     03F4  01B9               	clrf	___awdiv@counter
  2063     03F5  0AB9               	incf	___awdiv@counter,f
  2064     03F6  2C02               	goto	l1400
  2065     03F7                     l1396:
  2066     03F7  3001               	movlw	1
  2067     03F8                     u685:
  2068     03F8  1003               	clrc
  2069     03F9  0DB4               	rlf	___awdiv@divisor,f
  2070     03FA  0DB5               	rlf	___awdiv@divisor+1,f
  2071     03FB  3EFF               	addlw	-1
  2072     03FC  1D03               	skipz
  2073     03FD  2BF8               	goto	u685
  2074     03FE                     l1398:
  2075     03FE  3001               	movlw	1
  2076     03FF  00B8               	movwf	??___awdiv
  2077     0400  0838               	movf	??___awdiv,w
  2078     0401  07B9               	addwf	___awdiv@counter,f
  2079     0402                     l1400:
  2080     0402  1FB5               	btfss	___awdiv@divisor+1,7
  2081     0403  2C05               	goto	u691
  2082     0404  2C06               	goto	u690
  2083     0405                     u691:
  2084     0405  2BF7               	goto	l1396
  2085     0406                     u690:
  2086     0406                     l1402:
  2087     0406  3001               	movlw	1
  2088     0407                     u705:
  2089     0407  1003               	clrc
  2090     0408  0DBB               	rlf	___awdiv@quotient,f
  2091     0409  0DBC               	rlf	___awdiv@quotient+1,f
  2092     040A  3EFF               	addlw	-1
  2093     040B  1D03               	skipz
  2094     040C  2C07               	goto	u705
  2095     040D  0835               	movf	___awdiv@divisor+1,w
  2096     040E  0237               	subwf	___awdiv@dividend+1,w
  2097     040F  1D03               	skipz
  2098     0410  2C13               	goto	u715
  2099     0411  0834               	movf	___awdiv@divisor,w
  2100     0412  0236               	subwf	___awdiv@dividend,w
  2101     0413                     u715:
  2102     0413  1C03               	skipc
  2103     0414  2C16               	goto	u711
  2104     0415  2C17               	goto	u710
  2105     0416                     u711:
  2106     0416  2C1E               	goto	l1408
  2107     0417                     u710:
  2108     0417                     l1404:
  2109     0417  0834               	movf	___awdiv@divisor,w
  2110     0418  02B6               	subwf	___awdiv@dividend,f
  2111     0419  0835               	movf	___awdiv@divisor+1,w
  2112     041A  1C03               	skipc
  2113     041B  03B7               	decf	___awdiv@dividend+1,f
  2114     041C  02B7               	subwf	___awdiv@dividend+1,f
  2115     041D                     l1406:
  2116     041D  143B               	bsf	___awdiv@quotient,0
  2117     041E                     l1408:
  2118     041E  3001               	movlw	1
  2119     041F                     u725:
  2120     041F  1003               	clrc
  2121     0420  0CB5               	rrf	___awdiv@divisor+1,f
  2122     0421  0CB4               	rrf	___awdiv@divisor,f
  2123     0422  3EFF               	addlw	-1
  2124     0423  1D03               	skipz
  2125     0424  2C1F               	goto	u725
  2126     0425                     l1410:
  2127     0425  3001               	movlw	1
  2128     0426  02B9               	subwf	___awdiv@counter,f
  2129     0427  1D03               	btfss	3,2
  2130     0428  2C2A               	goto	u731
  2131     0429  2C2B               	goto	u730
  2132     042A                     u731:
  2133     042A  2C06               	goto	l1402
  2134     042B                     u730:
  2135     042B                     l1412:
  2136     042B  083A               	movf	___awdiv@sign,w
  2137     042C  1903               	btfsc	3,2
  2138     042D  2C2F               	goto	u741
  2139     042E  2C30               	goto	u740
  2140     042F                     u741:
  2141     042F  2C35               	goto	l1416
  2142     0430                     u740:
  2143     0430                     l1414:
  2144     0430  09BB               	comf	___awdiv@quotient,f
  2145     0431  09BC               	comf	___awdiv@quotient+1,f
  2146     0432  0ABB               	incf	___awdiv@quotient,f
  2147     0433  1903               	skipnz
  2148     0434  0ABC               	incf	___awdiv@quotient+1,f
  2149     0435                     l1416:
  2150     0435  083C               	movf	___awdiv@quotient+1,w
  2151     0436  00B5               	movwf	?___awdiv+1
  2152     0437  083B               	movf	___awdiv@quotient,w
  2153     0438  00B4               	movwf	?___awdiv
  2154     0439                     l475:
  2155     0439  0008               	return
  2156     043A                     __end_of___awdiv:
  2157                           
  2158                           	psect	text7
  2159     060E                     __ptext7:	
  2160 ;; *************** function _USART_read *****************
  2161 ;; Defined at:
  2162 ;;		line 365 in file "proyecto2.c"
  2163 ;; Parameters:    Size  Location     Type
  2164 ;;		None
  2165 ;; Auto vars:     Size  Location     Type
  2166 ;;		None
  2167 ;; Return value:  Size  Location     Type
  2168 ;;                  1    wreg      unsigned char 
  2169 ;; Registers used:
  2170 ;;		wreg
  2171 ;; Tracked objects:
  2172 ;;		On entry : 0/0
  2173 ;;		On exit  : 0/0
  2174 ;;		Unchanged: 0/0
  2175 ;; Data sizes:     COMMON   BANK0   BANK1   BANK3   BANK2
  2176 ;;      Params:         0       0       0       0       0
  2177 ;;      Locals:         0       0       0       0       0
  2178 ;;      Temps:          0       0       0       0       0
  2179 ;;      Totals:         0       0       0       0       0
  2180 ;;Total ram usage:        0 bytes
  2181 ;; Hardware stack levels used: 1
  2182 ;; Hardware stack levels required when called: 3
  2183 ;; This function calls:
  2184 ;;		Nothing
  2185 ;; This function is called by:
  2186 ;;		_main
  2187 ;; This function uses a non-reentrant model
  2188 ;;
  2189                           
  2190     060E                     _USART_read:	
  2191                           ;psect for function _USART_read
  2192                           
  2193     060E                     l1604:	
  2194                           ;incstack = 0
  2195                           ; Regs used in _USART_read: [wreg]
  2196                           
  2197     060E                     l224:	
  2198                           ;proyecto2.c: 367:     while(!RCIF);
  2199                           
  2200     060E  1283               	bcf	3,5	;RP0=0, select bank0
  2201     060F  1303               	bcf	3,6	;RP1=0, select bank0
  2202     0610  1E8C               	btfss	12,5	;volatile
  2203     0611  2E13               	goto	u911
  2204     0612  2E14               	goto	u910
  2205     0613                     u911:
  2206     0613  2E0E               	goto	l224
  2207     0614                     u910:
  2208     0614                     l1606:
  2209                           
  2210                           ;proyecto2.c: 368:     return RCREG;
  2211     0614  081A               	movf	26,w	;volatile
  2212     0615                     l227:
  2213     0615  0008               	return
  2214     0616                     __end_of_USART_read:
  2215                           
  2216                           	psect	text8
  2217     05EE                     __ptext8:	
  2218 ;; *************** function _EEPROM_read *****************
  2219 ;; Defined at:
  2220 ;;		line 372 in file "proyecto2.c"
  2221 ;; Parameters:    Size  Location     Type
  2222 ;;  address         1    wreg     unsigned char 
  2223 ;; Auto vars:     Size  Location     Type
  2224 ;;  address         1   14[BANK0 ] unsigned char 
  2225 ;; Return value:  Size  Location     Type
  2226 ;;                  1    wreg      unsigned char 
  2227 ;; Registers used:
  2228 ;;		wreg
  2229 ;; Tracked objects:
  2230 ;;		On entry : 0/0
  2231 ;;		On exit  : 0/0
  2232 ;;		Unchanged: 0/0
  2233 ;; Data sizes:     COMMON   BANK0   BANK1   BANK3   BANK2
  2234 ;;      Params:         0       0       0       0       0
  2235 ;;      Locals:         0       1       0       0       0
  2236 ;;      Temps:          0       0       0       0       0
  2237 ;;      Totals:         0       1       0       0       0
  2238 ;;Total ram usage:        1 bytes
  2239 ;; Hardware stack levels used: 1
  2240 ;; Hardware stack levels required when called: 3
  2241 ;; This function calls:
  2242 ;;		Nothing
  2243 ;; This function is called by:
  2244 ;;		_main
  2245 ;; This function uses a non-reentrant model
  2246 ;;
  2247                           
  2248     05EE                     _EEPROM_read:	
  2249                           ;psect for function _EEPROM_read
  2250                           
  2251                           
  2252                           ;incstack = 0
  2253                           ; Regs used in _EEPROM_read: [wreg]
  2254                           ;EEPROM_read@address stored from wreg
  2255     05EE  1283               	bcf	3,5	;RP0=0, select bank0
  2256     05EF  1303               	bcf	3,6	;RP1=0, select bank0
  2257     05F0  00AE               	movwf	EEPROM_read@address
  2258     05F1                     l1650:
  2259                           
  2260                           ;proyecto2.c: 374:     EEADR = address;
  2261     05F1  082E               	movf	EEPROM_read@address,w
  2262     05F2  1283               	bcf	3,5	;RP0=0, select bank2
  2263     05F3  1703               	bsf	3,6	;RP1=1, select bank2
  2264     05F4  008D               	movwf	13	;volatile
  2265     05F5                     l1652:
  2266                           
  2267                           ;proyecto2.c: 375:     EECON1bits.EEPGD=0;
  2268     05F5  1683               	bsf	3,5	;RP0=1, select bank3
  2269     05F6  1703               	bsf	3,6	;RP1=1, select bank3
  2270     05F7  138C               	bcf	12,7	;volsfr
  2271     05F8                     l1654:
  2272                           
  2273                           ;proyecto2.c: 376:     EECON1bits.RD=1;
  2274     05F8  140C               	bsf	12,0	;volsfr
  2275     05F9                     l1656:
  2276                           
  2277                           ;proyecto2.c: 377:     _delay((unsigned long)((1)*(500000/4000000.0)));
  2278                           ;proyecto2.c: 378:     return EEDAT;
  2279     05F9  1283               	bcf	3,5	;RP0=0, select bank2
  2280     05FA  1703               	bsf	3,6	;RP1=1, select bank2
  2281     05FB  080C               	movf	12,w	;volatile
  2282     05FC                     l230:
  2283     05FC  0008               	return
  2284     05FD                     __end_of_EEPROM_read:
  2285                           
  2286                           	psect	text9
  2287     01EA                     __ptext9:	
  2288 ;; *************** function _isr *****************
  2289 ;; Defined at:
  2290 ;;		line 45 in file "proyecto2.c"
  2291 ;; Parameters:    Size  Location     Type
  2292 ;;		None
  2293 ;; Auto vars:     Size  Location     Type
  2294 ;;		None
  2295 ;; Return value:  Size  Location     Type
  2296 ;;                  1    wreg      void 
  2297 ;; Registers used:
  2298 ;;		wreg, status,2, status,0, pclath, cstack
  2299 ;; Tracked objects:
  2300 ;;		On entry : 0/0
  2301 ;;		On exit  : 0/0
  2302 ;;		Unchanged: 0/0
  2303 ;; Data sizes:     COMMON   BANK0   BANK1   BANK3   BANK2
  2304 ;;      Params:         0       0       0       0       0
  2305 ;;      Locals:         0       0       0       0       0
  2306 ;;      Temps:          0       4       0       0       0
  2307 ;;      Totals:         0       4       0       0       0
  2308 ;;Total ram usage:        4 bytes
  2309 ;; Hardware stack levels used: 1
  2310 ;; Hardware stack levels required when called: 2
  2311 ;; This function calls:
  2312 ;;		_EEPROM_write
  2313 ;;		_map
  2314 ;;		_map2
  2315 ;; This function is called by:
  2316 ;;		Interrupt level 1
  2317 ;; This function uses a non-reentrant model
  2318 ;;
  2319                           
  2320     01EA                     _isr:	
  2321                           ;psect for function _isr
  2322                           
  2323     01EA                     i1l1660:
  2324                           
  2325                           ;proyecto2.c: 46:     if(PIR1bits.ADIF){
  2326     01EA  1F0C               	btfss	12,6	;volatile
  2327     01EB  29ED               	goto	u94_21
  2328     01EC  29EE               	goto	u94_20
  2329     01ED                     u94_21:
  2330     01ED  2A89               	goto	i1l1692
  2331     01EE                     u94_20:
  2332     01EE                     i1l1662:
  2333                           
  2334                           ;proyecto2.c: 47:         if(ADCON0bits.CHS == 0){
  2335     01EE  0C1F               	rrf	31,w	;volatile
  2336     01EF  00AA               	movwf	??_isr
  2337     01F0  0C2A               	rrf	??_isr,w
  2338     01F1  390F               	andlw	15
  2339     01F2  3A00               	xorlw	0
  2340     01F3  1D03               	skipz
  2341     01F4  29F6               	goto	u95_21
  2342     01F5  29F7               	goto	u95_20
  2343     01F6                     u95_21:
  2344     01F6  2A0A               	goto	i1l1668
  2345     01F7                     u95_20:
  2346     01F7                     i1l1664:
  2347                           
  2348                           ;proyecto2.c: 49:            CCPR1L = map2(ADRESH);
  2349     01F7  081E               	movf	30,w	;volatile
  2350     01F8  00AA               	movwf	??_isr
  2351     01F9  01AB               	clrf	??_isr+1
  2352     01FA  082A               	movf	??_isr,w
  2353     01FB  00A4               	movwf	map2@input
  2354     01FC  082B               	movf	??_isr+1,w
  2355     01FD  00A5               	movwf	map2@input+1
  2356     01FE  120A  118A  252B  120A  118A  	fcall	_map2
  2357     0203  1283               	bcf	3,5	;RP0=0, select bank0
  2358     0204  1303               	bcf	3,6	;RP1=0, select bank0
  2359     0205  0824               	movf	?_map2,w
  2360     0206  0095               	movwf	21	;volatile
  2361     0207                     i1l1666:
  2362                           
  2363                           ;proyecto2.c: 50:            CCP1CON = 0b00011100 ;
  2364     0207  301C               	movlw	28
  2365     0208  0097               	movwf	23	;volatile
  2366                           
  2367                           ;proyecto2.c: 52:         }
  2368     0209  2A88               	goto	i1l1690
  2369     020A                     i1l1668:
  2370     020A  0C1F               	rrf	31,w	;volatile
  2371     020B  00AA               	movwf	??_isr
  2372     020C  0C2A               	rrf	??_isr,w
  2373     020D  390F               	andlw	15
  2374     020E  3A01               	xorlw	1
  2375     020F  1D03               	skipz
  2376     0210  2A12               	goto	u96_21
  2377     0211  2A13               	goto	u96_20
  2378     0212                     u96_21:
  2379     0212  2A26               	goto	i1l1674
  2380     0213                     u96_20:
  2381     0213                     i1l1670:
  2382                           
  2383                           ;proyecto2.c: 56:             CCPR2L = map2(ADRESH);
  2384     0213  081E               	movf	30,w	;volatile
  2385     0214  00AA               	movwf	??_isr
  2386     0215  01AB               	clrf	??_isr+1
  2387     0216  082A               	movf	??_isr,w
  2388     0217  00A4               	movwf	map2@input
  2389     0218  082B               	movf	??_isr+1,w
  2390     0219  00A5               	movwf	map2@input+1
  2391     021A  120A  118A  252B  120A  118A  	fcall	_map2
  2392     021F  1283               	bcf	3,5	;RP0=0, select bank0
  2393     0220  1303               	bcf	3,6	;RP1=0, select bank0
  2394     0221  0824               	movf	?_map2,w
  2395     0222  009B               	movwf	27	;volatile
  2396     0223                     i1l1672:
  2397                           
  2398                           ;proyecto2.c: 57:             CCP2CON = 0b00011100 ;
  2399     0223  301C               	movlw	28
  2400     0224  009D               	movwf	29	;volatile
  2401                           
  2402                           ;proyecto2.c: 59:         }
  2403     0225  2A88               	goto	i1l1690
  2404     0226                     i1l1674:
  2405     0226  0C1F               	rrf	31,w	;volatile
  2406     0227  00AA               	movwf	??_isr
  2407     0228  0C2A               	rrf	??_isr,w
  2408     0229  390F               	andlw	15
  2409     022A  3A02               	xorlw	2
  2410     022B  1D03               	skipz
  2411     022C  2A2E               	goto	u97_21
  2412     022D  2A2F               	goto	u97_20
  2413     022E                     u97_21:
  2414     022E  2A57               	goto	i1l1682
  2415     022F                     u97_20:
  2416     022F                     i1l1676:
  2417                           
  2418                           ;proyecto2.c: 62:             CCPR = map(ADRESH);
  2419     022F  081E               	movf	30,w	;volatile
  2420     0230  00AA               	movwf	??_isr
  2421     0231  01AB               	clrf	??_isr+1
  2422     0232  082A               	movf	??_isr,w
  2423     0233  00A4               	movwf	map@input
  2424     0234  082B               	movf	??_isr+1,w
  2425     0235  00A5               	movwf	map@input+1
  2426     0236  120A  118A  2556  120A  118A  	fcall	_map
  2427     023B  1283               	bcf	3,5	;RP0=0, select bank0
  2428     023C  1303               	bcf	3,6	;RP1=0, select bank0
  2429     023D  0825               	movf	?_map+1,w
  2430     023E  00CC               	movwf	_CCPR+1
  2431     023F  0824               	movf	?_map,w
  2432     0240  00CB               	movwf	_CCPR
  2433     0241                     i1l1678:
  2434                           
  2435                           ;proyecto2.c: 63:             CCPR1L = (uint8_t)(CCPR>>2);
  2436     0241  084C               	movf	_CCPR+1,w
  2437     0242  00AB               	movwf	??_isr+1
  2438     0243  084B               	movf	_CCPR,w
  2439     0244  00AA               	movwf	??_isr
  2440     0245  1003               	clrc
  2441     0246  0CAB               	rrf	??_isr+1,f
  2442     0247  0CAA               	rrf	??_isr,f
  2443     0248  1003               	clrc
  2444     0249  0CAB               	rrf	??_isr+1,f
  2445     024A  0CAA               	rrf	??_isr,f
  2446     024B  082A               	movf	??_isr,w
  2447     024C  0095               	movwf	21	;volatile
  2448     024D                     i1l1680:
  2449                           
  2450                           ;proyecto2.c: 64:             CCP1CONbits.DC1B = CCPR & 0b11;
  2451     024D  084B               	movf	_CCPR,w
  2452     024E  3903               	andlw	3
  2453     024F  00AA               	movwf	??_isr
  2454     0250  0EAA               	swapf	??_isr,f
  2455     0251  0817               	movf	23,w	;volatile
  2456     0252  062A               	xorwf	??_isr,w
  2457     0253  39CF               	andlw	-49
  2458     0254  062A               	xorwf	??_isr,w
  2459     0255  0097               	movwf	23	;volatile
  2460                           
  2461                           ;proyecto2.c: 66:         }
  2462     0256  2A88               	goto	i1l1690
  2463     0257                     i1l1682:
  2464     0257  0C1F               	rrf	31,w	;volatile
  2465     0258  00AA               	movwf	??_isr
  2466     0259  0C2A               	rrf	??_isr,w
  2467     025A  390F               	andlw	15
  2468     025B  3A03               	xorlw	3
  2469     025C  1D03               	skipz
  2470     025D  2A5F               	goto	u98_21
  2471     025E  2A60               	goto	u98_20
  2472     025F                     u98_21:
  2473     025F  2A88               	goto	i1l143
  2474     0260                     u98_20:
  2475     0260                     i1l1684:
  2476                           
  2477                           ;proyecto2.c: 69:             CCPR_2 = map(ADRESH);
  2478     0260  081E               	movf	30,w	;volatile
  2479     0261  00AA               	movwf	??_isr
  2480     0262  01AB               	clrf	??_isr+1
  2481     0263  082A               	movf	??_isr,w
  2482     0264  00A4               	movwf	map@input
  2483     0265  082B               	movf	??_isr+1,w
  2484     0266  00A5               	movwf	map@input+1
  2485     0267  120A  118A  2556  120A  118A  	fcall	_map
  2486     026C  1283               	bcf	3,5	;RP0=0, select bank0
  2487     026D  1303               	bcf	3,6	;RP1=0, select bank0
  2488     026E  0825               	movf	?_map+1,w
  2489     026F  00CA               	movwf	_CCPR_2+1
  2490     0270  0824               	movf	?_map,w
  2491     0271  00C9               	movwf	_CCPR_2
  2492     0272                     i1l1686:
  2493                           
  2494                           ;proyecto2.c: 70:             CCPR2L = (uint8_t)(CCPR_2>>2);
  2495     0272  084A               	movf	_CCPR_2+1,w
  2496     0273  00AB               	movwf	??_isr+1
  2497     0274  0849               	movf	_CCPR_2,w
  2498     0275  00AA               	movwf	??_isr
  2499     0276  1003               	clrc
  2500     0277  0CAB               	rrf	??_isr+1,f
  2501     0278  0CAA               	rrf	??_isr,f
  2502     0279  1003               	clrc
  2503     027A  0CAB               	rrf	??_isr+1,f
  2504     027B  0CAA               	rrf	??_isr,f
  2505     027C  082A               	movf	??_isr,w
  2506     027D  009B               	movwf	27	;volatile
  2507     027E                     i1l1688:
  2508                           
  2509                           ;proyecto2.c: 71:             CCP2CONbits.DC2B0 = CCPR_2 & 0b11;
  2510     027E  0849               	movf	_CCPR_2,w
  2511     027F  3903               	andlw	3
  2512     0280  00AA               	movwf	??_isr
  2513     0281  0EAA               	swapf	??_isr,f
  2514     0282  081D               	movf	29,w	;volatile
  2515     0283  062A               	xorwf	??_isr,w
  2516     0284  39EF               	andlw	-17
  2517     0285  062A               	xorwf	??_isr,w
  2518     0286  009D               	movwf	29	;volatile
  2519     0287  2A88               	goto	i1l1690
  2520     0288                     i1l143:
  2521     0288                     i1l1690:
  2522                           
  2523                           ;proyecto2.c: 75:         PIR1bits.ADIF = 0;
  2524     0288  130C               	bcf	12,6	;volatile
  2525     0289                     i1l1692:
  2526                           
  2527                           ;proyecto2.c: 77:      if (INTCONbits.RBIF){
  2528     0289  1C0B               	btfss	11,0	;volatile
  2529     028A  2A8C               	goto	u99_21
  2530     028B  2A8D               	goto	u99_20
  2531     028C                     u99_21:
  2532     028C  2B37               	goto	i1l169
  2533     028D                     u99_20:
  2534     028D                     i1l1694:
  2535                           
  2536                           ;proyecto2.c: 79:         if (PORTBbits.RB0==0){
  2537     028D  1806               	btfsc	6,0	;volatile
  2538     028E  2A90               	goto	u100_21
  2539     028F  2A91               	goto	u100_20
  2540     0290                     u100_21:
  2541     0290  2A96               	goto	i1l148
  2542     0291                     u100_20:
  2543     0291                     i1l1696:
  2544                           
  2545                           ;proyecto2.c: 80:             cont = 1;
  2546     0291  3001               	movlw	1
  2547     0292  00C7               	movwf	_cont
  2548     0293  3000               	movlw	0
  2549     0294  00C8               	movwf	_cont+1
  2550                           
  2551                           ;proyecto2.c: 81:         }
  2552     0295  2B36               	goto	i1l1728
  2553     0296                     i1l148:	
  2554                           ;proyecto2.c: 83:         else if (PORTBbits.RB1 ==0){
  2555                           
  2556     0296  1886               	btfsc	6,1	;volatile
  2557     0297  2A99               	goto	u101_21
  2558     0298  2A9A               	goto	u101_20
  2559     0299                     u101_21:
  2560     0299  2A9F               	goto	i1l150
  2561     029A                     u101_20:
  2562     029A                     i1l1698:
  2563                           
  2564                           ;proyecto2.c: 84:             cont =2;
  2565     029A  3002               	movlw	2
  2566     029B  00C7               	movwf	_cont
  2567     029C  3000               	movlw	0
  2568     029D  00C8               	movwf	_cont+1
  2569                           
  2570                           ;proyecto2.c: 85:         }
  2571     029E  2B36               	goto	i1l1728
  2572     029F                     i1l150:	
  2573                           ;proyecto2.c: 86:         else if (PORTBbits.RB2 ==0){
  2574                           
  2575     029F  1906               	btfsc	6,2	;volatile
  2576     02A0  2AA2               	goto	u102_21
  2577     02A1  2AA3               	goto	u102_20
  2578     02A2                     u102_21:
  2579     02A2  2AA8               	goto	i1l152
  2580     02A3                     u102_20:
  2581     02A3                     i1l1700:
  2582                           
  2583                           ;proyecto2.c: 87:             cont = 3;
  2584     02A3  3003               	movlw	3
  2585     02A4  00C7               	movwf	_cont
  2586     02A5  3000               	movlw	0
  2587     02A6  00C8               	movwf	_cont+1
  2588                           
  2589                           ;proyecto2.c: 88:         }
  2590     02A7  2B36               	goto	i1l1728
  2591     02A8                     i1l152:	
  2592                           ;proyecto2.c: 89:         else if (PORTBbits.RB3 ==0){
  2593                           
  2594     02A8  1986               	btfsc	6,3	;volatile
  2595     02A9  2AAB               	goto	u103_21
  2596     02AA  2AAC               	goto	u103_20
  2597     02AB                     u103_21:
  2598     02AB  2AB1               	goto	i1l154
  2599     02AC                     u103_20:
  2600     02AC                     i1l1702:
  2601                           
  2602                           ;proyecto2.c: 90:             cont =4;
  2603     02AC  3004               	movlw	4
  2604     02AD  00C7               	movwf	_cont
  2605     02AE  3000               	movlw	0
  2606     02AF  00C8               	movwf	_cont+1
  2607                           
  2608                           ;proyecto2.c: 91:         }
  2609     02B0  2B36               	goto	i1l1728
  2610     02B1                     i1l154:	
  2611                           ;proyecto2.c: 92:         else if (PORTBbits.RB4 ==0){
  2612                           
  2613     02B1  1A06               	btfsc	6,4	;volatile
  2614     02B2  2AB4               	goto	u104_21
  2615     02B3  2AB5               	goto	u104_20
  2616     02B4                     u104_21:
  2617     02B4  2ABA               	goto	i1l156
  2618     02B5                     u104_20:
  2619     02B5                     i1l1704:
  2620                           
  2621                           ;proyecto2.c: 93:             menu =1;
  2622     02B5  3001               	movlw	1
  2623     02B6  00C5               	movwf	_menu
  2624     02B7  3000               	movlw	0
  2625     02B8  00C6               	movwf	_menu+1
  2626                           
  2627                           ;proyecto2.c: 94:         }
  2628     02B9  2B36               	goto	i1l1728
  2629     02BA                     i1l156:	
  2630                           ;proyecto2.c: 95:         else if (PORTBbits.RB5 ==0){
  2631                           
  2632     02BA  1A86               	btfsc	6,5	;volatile
  2633     02BB  2ABD               	goto	u105_21
  2634     02BC  2ABE               	goto	u105_20
  2635     02BD                     u105_21:
  2636     02BD  2AC3               	goto	i1l158
  2637     02BE                     u105_20:
  2638     02BE                     i1l1706:
  2639                           
  2640                           ;proyecto2.c: 96:             menu =2;
  2641     02BE  3002               	movlw	2
  2642     02BF  00C5               	movwf	_menu
  2643     02C0  3000               	movlw	0
  2644     02C1  00C6               	movwf	_menu+1
  2645                           
  2646                           ;proyecto2.c: 97:         }
  2647     02C2  2B36               	goto	i1l1728
  2648     02C3                     i1l158:	
  2649                           ;proyecto2.c: 98:         else if (PORTBbits.RB6 ==0){
  2650                           
  2651     02C3  1B06               	btfsc	6,6	;volatile
  2652     02C4  2AC6               	goto	u106_21
  2653     02C5  2AC7               	goto	u106_20
  2654     02C6                     u106_21:
  2655     02C6  2ACC               	goto	i1l160
  2656     02C7                     u106_20:
  2657     02C7                     i1l1708:
  2658                           
  2659                           ;proyecto2.c: 99:             menu =3;
  2660     02C7  3003               	movlw	3
  2661     02C8  00C5               	movwf	_menu
  2662     02C9  3000               	movlw	0
  2663     02CA  00C6               	movwf	_menu+1
  2664                           
  2665                           ;proyecto2.c: 100:         }
  2666     02CB  2B36               	goto	i1l1728
  2667     02CC                     i1l160:	
  2668                           ;proyecto2.c: 101:         else if (PORTBbits.RB7 == 0){
  2669                           
  2670     02CC  1B86               	btfsc	6,7	;volatile
  2671     02CD  2ACF               	goto	u107_21
  2672     02CE  2AD0               	goto	u107_20
  2673     02CF                     u107_21:
  2674     02CF  2B36               	goto	i1l1728
  2675     02D0                     u107_20:
  2676     02D0                     i1l1710:
  2677                           
  2678                           ;proyecto2.c: 102:             EEPROM_write(address_CCPR1L, CCPR1L);
  2679     02D0  0815               	movf	21,w	;volatile
  2680     02D1  00F0               	movwf	EEPROM_write@data
  2681     02D2  084D               	movf	_address_CCPR1L,w
  2682     02D3  120A  118A  25CD  120A  118A  	fcall	_EEPROM_write
  2683                           
  2684                           ;proyecto2.c: 103:             EEPROM_write(address_CCP1CON, CCP1CON);
  2685     02D8  1283               	bcf	3,5	;RP0=0, select bank0
  2686     02D9  1303               	bcf	3,6	;RP1=0, select bank0
  2687     02DA  0817               	movf	23,w	;volatile
  2688     02DB  00F0               	movwf	EEPROM_write@data
  2689     02DC  0854               	movf	_address_CCP1CON,w
  2690     02DD  120A  118A  25CD  120A  118A  	fcall	_EEPROM_write
  2691                           
  2692                           ;proyecto2.c: 104:             EEPROM_write(address_CCPR2L, CCPR2L);
  2693     02E2  1283               	bcf	3,5	;RP0=0, select bank0
  2694     02E3  1303               	bcf	3,6	;RP1=0, select bank0
  2695     02E4  081B               	movf	27,w	;volatile
  2696     02E5  00F0               	movwf	EEPROM_write@data
  2697     02E6  0853               	movf	_address_CCPR2L,w
  2698     02E7  120A  118A  25CD  120A  118A  	fcall	_EEPROM_write
  2699                           
  2700                           ;proyecto2.c: 105:             EEPROM_write(address_CCP2CON, CCP2CON);
  2701     02EC  1283               	bcf	3,5	;RP0=0, select bank0
  2702     02ED  1303               	bcf	3,6	;RP1=0, select bank0
  2703     02EE  081D               	movf	29,w	;volatile
  2704     02EF  00F0               	movwf	EEPROM_write@data
  2705     02F0  0852               	movf	_address_CCP2CON,w
  2706     02F1  120A  118A  25CD  120A  118A  	fcall	_EEPROM_write
  2707     02F6                     i1l1712:
  2708                           
  2709                           ;proyecto2.c: 107:             if (cont==1){
  2710     02F6  1283               	bcf	3,5	;RP0=0, select bank0
  2711     02F7  1303               	bcf	3,6	;RP1=0, select bank0
  2712     02F8  0347               	decf	_cont,w
  2713     02F9  0448               	iorwf	_cont+1,w
  2714     02FA  1D03               	btfss	3,2
  2715     02FB  2AFD               	goto	u108_21
  2716     02FC  2AFE               	goto	u108_20
  2717     02FD                     u108_21:
  2718     02FD  2B07               	goto	i1l1716
  2719     02FE                     u108_20:
  2720     02FE                     i1l1714:
  2721                           
  2722                           ;proyecto2.c: 108:               EEPROM_write(addressC, 0xFF);
  2723     02FE  30FF               	movlw	255
  2724     02FF  00F0               	movwf	EEPROM_write@data
  2725     0300  0851               	movf	_addressC,w
  2726     0301  120A  118A  25CD  120A  118A  	fcall	_EEPROM_write
  2727                           
  2728                           ;proyecto2.c: 109:             }else if (cont==3){
  2729     0306  2B15               	goto	i1l1720
  2730     0307                     i1l1716:
  2731     0307  3003               	movlw	3
  2732     0308  0647               	xorwf	_cont,w
  2733     0309  0448               	iorwf	_cont+1,w
  2734     030A  1D03               	btfss	3,2
  2735     030B  2B0D               	goto	u109_21
  2736     030C  2B0E               	goto	u109_20
  2737     030D                     u109_21:
  2738     030D  2B15               	goto	i1l1720
  2739     030E                     u109_20:
  2740     030E                     i1l1718:
  2741                           
  2742                           ;proyecto2.c: 110:                 EEPROM_write(addressC, 0x00);
  2743     030E  01F0               	clrf	EEPROM_write@data
  2744     030F  0851               	movf	_addressC,w
  2745     0310  120A  118A  25CD  120A  118A  	fcall	_EEPROM_write
  2746     0315                     i1l1720:
  2747                           
  2748                           ;proyecto2.c: 112:             if (cont==2){
  2749     0315  3002               	movlw	2
  2750     0316  1283               	bcf	3,5	;RP0=0, select bank0
  2751     0317  1303               	bcf	3,6	;RP1=0, select bank0
  2752     0318  0647               	xorwf	_cont,w
  2753     0319  0448               	iorwf	_cont+1,w
  2754     031A  1D03               	btfss	3,2
  2755     031B  2B1D               	goto	u110_21
  2756     031C  2B1E               	goto	u110_20
  2757     031D                     u110_21:
  2758     031D  2B27               	goto	i1l1724
  2759     031E                     u110_20:
  2760     031E                     i1l1722:
  2761                           
  2762                           ;proyecto2.c: 113:              EEPROM_write(addressD, 0xFF);
  2763     031E  30FF               	movlw	255
  2764     031F  00F0               	movwf	EEPROM_write@data
  2765     0320  0850               	movf	_addressD,w
  2766     0321  120A  118A  25CD  120A  118A  	fcall	_EEPROM_write
  2767                           
  2768                           ;proyecto2.c: 114:             }else if (cont==4){
  2769     0326  2B36               	goto	i1l1728
  2770     0327                     i1l1724:
  2771     0327  3004               	movlw	4
  2772     0328  0647               	xorwf	_cont,w
  2773     0329  0448               	iorwf	_cont+1,w
  2774     032A  1D03               	btfss	3,2
  2775     032B  2B2D               	goto	u111_21
  2776     032C  2B2E               	goto	u111_20
  2777     032D                     u111_21:
  2778     032D  2B36               	goto	i1l161
  2779     032E                     u111_20:
  2780     032E                     i1l1726:
  2781                           
  2782                           ;proyecto2.c: 115:               EEPROM_write(addressD, 0x00);
  2783     032E  01F0               	clrf	EEPROM_write@data
  2784     032F  0850               	movf	_addressD,w
  2785     0330  120A  118A  25CD  120A  118A  	fcall	_EEPROM_write
  2786     0335  2B36               	goto	i1l1728
  2787     0336                     i1l161:
  2788     0336                     i1l1728:
  2789                           
  2790                           ;proyecto2.c: 121:         INTCONbits.RBIF=0;
  2791     0336  100B               	bcf	11,0	;volatile
  2792     0337                     i1l169:
  2793     0337  1283               	bcf	3,5	;RP0=0, select bank0
  2794     0338  1303               	bcf	3,6	;RP1=0, select bank0
  2795     0339  082D               	movf	??_isr+3,w
  2796     033A  008A               	movwf	10
  2797     033B  0E2C               	swapf	??_isr+2,w
  2798     033C  0083               	movwf	3
  2799     033D  0EFE               	swapf	btemp,f
  2800     033E  0E7E               	swapf	btemp,w
  2801     033F  0009               	retfie
  2802     0340                     __end_of_isr:
  2803                           
  2804                           	psect	intentry
  2805     0004                     __pintentry:	
  2806                           ;incstack = 0
  2807                           ; Regs used in _isr: [wreg+status,2+status,0+pclath+cstack]
  2808                           
  2809     0004                     interrupt_function:
  2810     007E                     saved_w	set	btemp
  2811     0004  00FE               	movwf	btemp
  2812     0005  0E03               	swapf	3,w
  2813     0006  1283               	bcf	3,5	;RP0=0, select bank0
  2814     0007  1303               	bcf	3,6	;RP1=0, select bank0
  2815     0008  00AC               	movwf	??_isr+2
  2816     0009  080A               	movf	10,w
  2817     000A  00AD               	movwf	??_isr+3
  2818     000B  120A  118A  29EA   	ljmp	_isr
  2819                           
  2820                           	psect	text10
  2821     052B                     __ptext10:	
  2822 ;; *************** function _map2 *****************
  2823 ;; Defined at:
  2824 ;;		line 325 in file "proyecto2.c"
  2825 ;; Parameters:    Size  Location     Type
  2826 ;;  input           2    4[BANK0 ] int 
  2827 ;; Auto vars:     Size  Location     Type
  2828 ;;  outputMin       2    0        int 
  2829 ;;  inputMin        2    0        int 
  2830 ;;  output          2    8[BANK0 ] int 
  2831 ;;  outputMax       2    6[BANK0 ] int 
  2832 ;;  inputMax        2    0        int 
  2833 ;; Return value:  Size  Location     Type
  2834 ;;                  2    4[BANK0 ] int 
  2835 ;; Registers used:
  2836 ;;		wreg, status,2, status,0, pclath, cstack
  2837 ;; Tracked objects:
  2838 ;;		On entry : 0/0
  2839 ;;		On exit  : 0/0
  2840 ;;		Unchanged: 0/0
  2841 ;; Data sizes:     COMMON   BANK0   BANK1   BANK3   BANK2
  2842 ;;      Params:         0       2       0       0       0
  2843 ;;      Locals:         0       4       0       0       0
  2844 ;;      Temps:          0       0       0       0       0
  2845 ;;      Totals:         0       6       0       0       0
  2846 ;;Total ram usage:        6 bytes
  2847 ;; Hardware stack levels used: 1
  2848 ;; Hardware stack levels required when called: 1
  2849 ;; This function calls:
  2850 ;;		i1___awdiv
  2851 ;;		i1___wmul
  2852 ;; This function is called by:
  2853 ;;		_isr
  2854 ;; This function uses a non-reentrant model
  2855 ;;
  2856                           
  2857     052B                     _map2:	
  2858                           ;psect for function _map2
  2859                           
  2860     052B                     i1l1478:	
  2861                           ;incstack = 0
  2862                           ; Regs used in _map2: [wreg+status,2+status,0+pclath+cstack]
  2863                           
  2864     052B                     i1l1480:
  2865     052B                     i1l1482:
  2866                           
  2867                           ;proyecto2.c: 330:     int outputMax = 140;
  2868     052B  308C               	movlw	140
  2869     052C  1283               	bcf	3,5	;RP0=0, select bank0
  2870     052D  1303               	bcf	3,6	;RP1=0, select bank0
  2871     052E  00A6               	movwf	map2@outputMax
  2872     052F  3000               	movlw	0
  2873     0530  00A7               	movwf	map2@outputMax+1
  2874     0531                     i1l1484:
  2875                           
  2876                           ;proyecto2.c: 333:     int output = ((input - inputMin) * (outputMax - outputMin)) / (in
      +                          putMax - inputMin) + outputMin;
  2877     0531  30FF               	movlw	255
  2878     0532  00F6               	movwf	i1___awdiv@divisor
  2879     0533  3000               	movlw	0
  2880     0534  00F7               	movwf	i1___awdiv@divisor+1
  2881     0535  0825               	movf	map2@input+1,w
  2882     0536  00F1               	movwf	i1___wmul@multiplier+1
  2883     0537  0824               	movf	map2@input,w
  2884     0538  00F0               	movwf	i1___wmul@multiplier
  2885     0539  308C               	movlw	140
  2886     053A  00F2               	movwf	i1___wmul@multiplicand
  2887     053B  3000               	movlw	0
  2888     053C  00F3               	movwf	i1___wmul@multiplicand+1
  2889     053D  120A  118A  25A8  120A  118A  	fcall	i1___wmul
  2890     0542  0871               	movf	?i1___wmul+1,w
  2891     0543  00F9               	movwf	i1___awdiv@dividend+1
  2892     0544  0870               	movf	?i1___wmul,w
  2893     0545  00F8               	movwf	i1___awdiv@dividend
  2894     0546  120A  118A  243A  120A  118A  	fcall	i1___awdiv
  2895     054B  0877               	movf	?i1___awdiv+1,w
  2896     054C  1283               	bcf	3,5	;RP0=0, select bank0
  2897     054D  1303               	bcf	3,6	;RP1=0, select bank0
  2898     054E  00A9               	movwf	map2@output+1
  2899     054F  0876               	movf	?i1___awdiv,w
  2900     0550  00A8               	movwf	map2@output
  2901     0551                     i1l1486:
  2902                           
  2903                           ;proyecto2.c: 335:     return output;
  2904     0551  0829               	movf	map2@output+1,w
  2905     0552  00A5               	movwf	?_map2+1
  2906     0553  0828               	movf	map2@output,w
  2907     0554  00A4               	movwf	?_map2
  2908     0555                     i1l215:
  2909     0555  0008               	return
  2910     0556                     __end_of_map2:
  2911                           
  2912                           	psect	text11
  2913     0556                     __ptext11:	
  2914 ;; *************** function _map *****************
  2915 ;; Defined at:
  2916 ;;		line 312 in file "proyecto2.c"
  2917 ;; Parameters:    Size  Location     Type
  2918 ;;  input           2    4[BANK0 ] int 
  2919 ;; Auto vars:     Size  Location     Type
  2920 ;;  outputMin       2    0        int 
  2921 ;;  inputMin        2    0        int 
  2922 ;;  output          2   11[COMMON] int 
  2923 ;;  outputMax       2    0        int 
  2924 ;;  inputMax        2    0        int 
  2925 ;; Return value:  Size  Location     Type
  2926 ;;                  2    4[BANK0 ] int 
  2927 ;; Registers used:
  2928 ;;		wreg, status,2, status,0, pclath, cstack
  2929 ;; Tracked objects:
  2930 ;;		On entry : 0/0
  2931 ;;		On exit  : 0/0
  2932 ;;		Unchanged: 0/0
  2933 ;; Data sizes:     COMMON   BANK0   BANK1   BANK3   BANK2
  2934 ;;      Params:         0       2       0       0       0
  2935 ;;      Locals:         2       0       0       0       0
  2936 ;;      Temps:          0       0       0       0       0
  2937 ;;      Totals:         2       2       0       0       0
  2938 ;;Total ram usage:        4 bytes
  2939 ;; Hardware stack levels used: 1
  2940 ;; Hardware stack levels required when called: 1
  2941 ;; This function calls:
  2942 ;;		i1___awdiv
  2943 ;;		i1___wmul
  2944 ;; This function is called by:
  2945 ;;		_isr
  2946 ;; This function uses a non-reentrant model
  2947 ;;
  2948                           
  2949     0556                     _map:	
  2950                           ;psect for function _map
  2951                           
  2952     0556                     i1l1490:	
  2953                           ;incstack = 0
  2954                           ; Regs used in _map: [wreg+status,2+status,0+pclath+cstack]
  2955                           
  2956     0556                     i1l1492:
  2957     0556                     i1l1494:
  2958     0556                     i1l1496:
  2959     0556                     i1l1498:
  2960                           
  2961                           ;proyecto2.c: 320:     int output = ((input - inputMin) * (outputMax - outputMin)) / (in
      +                          putMax - inputMin) + outputMin;
  2962     0556  30FF               	movlw	255
  2963     0557  00F6               	movwf	i1___awdiv@divisor
  2964     0558  3000               	movlw	0
  2965     0559  00F7               	movwf	i1___awdiv@divisor+1
  2966     055A  1283               	bcf	3,5	;RP0=0, select bank0
  2967     055B  1303               	bcf	3,6	;RP1=0, select bank0
  2968     055C  0825               	movf	map@input+1,w
  2969     055D  00F1               	movwf	i1___wmul@multiplier+1
  2970     055E  0824               	movf	map@input,w
  2971     055F  00F0               	movwf	i1___wmul@multiplier
  2972     0560  3038               	movlw	56
  2973     0561  00F2               	movwf	i1___wmul@multiplicand
  2974     0562  3000               	movlw	0
  2975     0563  00F3               	movwf	i1___wmul@multiplicand+1
  2976     0564  120A  118A  25A8  120A  118A  	fcall	i1___wmul
  2977     0569  0871               	movf	?i1___wmul+1,w
  2978     056A  00F9               	movwf	i1___awdiv@dividend+1
  2979     056B  0870               	movf	?i1___wmul,w
  2980     056C  00F8               	movwf	i1___awdiv@dividend
  2981     056D  120A  118A  243A  120A  118A  	fcall	i1___awdiv
  2982     0572  0876               	movf	?i1___awdiv,w
  2983     0573  3E09               	addlw	9
  2984     0574  00FB               	movwf	map@output
  2985     0575  0877               	movf	?i1___awdiv+1,w
  2986     0576  1803               	skipnc
  2987     0577  3E01               	addlw	1
  2988     0578  3E00               	addlw	0
  2989     0579  00FC               	movwf	map@output+1
  2990     057A                     i1l1500:
  2991                           
  2992                           ;proyecto2.c: 322:     return output;
  2993     057A  087C               	movf	map@output+1,w
  2994     057B  1283               	bcf	3,5	;RP0=0, select bank0
  2995     057C  1303               	bcf	3,6	;RP1=0, select bank0
  2996     057D  00A5               	movwf	?_map+1
  2997     057E  087B               	movf	map@output,w
  2998     057F  00A4               	movwf	?_map
  2999     0580                     i1l212:
  3000     0580  0008               	return
  3001     0581                     __end_of_map:
  3002                           
  3003                           	psect	text12
  3004     05A8                     __ptext12:	
  3005 ;; *************** function i1___wmul *****************
  3006 ;; Defined at:
  3007 ;;		line 15 in file "C:\Program Files\Microchip\xc8\v2.40\pic\sources\c90\common\Umul16.c"
  3008 ;; Parameters:    Size  Location     Type
  3009 ;;  multiplier      2    0[COMMON] unsigned int 
  3010 ;;  multiplicand    2    2[COMMON] unsigned int 
  3011 ;; Auto vars:     Size  Location     Type
  3012 ;;  product         2    4[COMMON] unsigned int 
  3013 ;; Return value:  Size  Location     Type
  3014 ;;                  2    0[COMMON] unsigned int 
  3015 ;; Registers used:
  3016 ;;		wreg, status,2, status,0
  3017 ;; Tracked objects:
  3018 ;;		On entry : 0/0
  3019 ;;		On exit  : 0/0
  3020 ;;		Unchanged: 0/0
  3021 ;; Data sizes:     COMMON   BANK0   BANK1   BANK3   BANK2
  3022 ;;      Params:         4       0       0       0       0
  3023 ;;      Locals:         2       0       0       0       0
  3024 ;;      Temps:          0       0       0       0       0
  3025 ;;      Totals:         6       0       0       0       0
  3026 ;;Total ram usage:        6 bytes
  3027 ;; Hardware stack levels used: 1
  3028 ;; This function calls:
  3029 ;;		Nothing
  3030 ;; This function is called by:
  3031 ;;		_map
  3032 ;;		_map2
  3033 ;; This function uses a non-reentrant model
  3034 ;;
  3035                           
  3036     05A8                     i1___wmul:	
  3037                           ;psect for function i1___wmul
  3038                           
  3039     05A8                     i1l1420:	
  3040                           ;incstack = 0
  3041                           ; Regs used in i1___wmul: [wreg+status,2+status,0]
  3042                           
  3043     05A8  01F4               	clrf	i1___wmul@product
  3044     05A9  01F5               	clrf	i1___wmul@product+1
  3045     05AA                     i1l1422:
  3046     05AA  1C70               	btfss	i1___wmul@multiplier,0
  3047     05AB  2DAD               	goto	u75_21
  3048     05AC  2DAE               	goto	u75_20
  3049     05AD                     u75_21:
  3050     05AD  2DB4               	goto	i1l322
  3051     05AE                     u75_20:
  3052     05AE                     i1l1424:
  3053     05AE  0872               	movf	i1___wmul@multiplicand,w
  3054     05AF  07F4               	addwf	i1___wmul@product,f
  3055     05B0  1803               	skipnc
  3056     05B1  0AF5               	incf	i1___wmul@product+1,f
  3057     05B2  0873               	movf	i1___wmul@multiplicand+1,w
  3058     05B3  07F5               	addwf	i1___wmul@product+1,f
  3059     05B4                     i1l322:
  3060     05B4  3001               	movlw	1
  3061     05B5                     u76_25:
  3062     05B5  1003               	clrc
  3063     05B6  0DF2               	rlf	i1___wmul@multiplicand,f
  3064     05B7  0DF3               	rlf	i1___wmul@multiplicand+1,f
  3065     05B8  3EFF               	addlw	-1
  3066     05B9  1D03               	skipz
  3067     05BA  2DB5               	goto	u76_25
  3068     05BB                     i1l1426:
  3069     05BB  3001               	movlw	1
  3070     05BC                     u77_25:
  3071     05BC  1003               	clrc
  3072     05BD  0CF1               	rrf	i1___wmul@multiplier+1,f
  3073     05BE  0CF0               	rrf	i1___wmul@multiplier,f
  3074     05BF  3EFF               	addlw	-1
  3075     05C0  1D03               	skipz
  3076     05C1  2DBC               	goto	u77_25
  3077     05C2                     i1l1428:
  3078     05C2  0870               	movf	i1___wmul@multiplier,w
  3079     05C3  0471               	iorwf	i1___wmul@multiplier+1,w
  3080     05C4  1D03               	btfss	3,2
  3081     05C5  2DC7               	goto	u78_21
  3082     05C6  2DC8               	goto	u78_20
  3083     05C7                     u78_21:
  3084     05C7  2DAA               	goto	i1l1422
  3085     05C8                     u78_20:
  3086     05C8                     i1l1430:
  3087     05C8  0875               	movf	i1___wmul@product+1,w
  3088     05C9  00F1               	movwf	?i1___wmul+1
  3089     05CA  0874               	movf	i1___wmul@product,w
  3090     05CB  00F0               	movwf	?i1___wmul
  3091     05CC                     i1l324:
  3092     05CC  0008               	return
  3093     05CD                     __end_ofi1___wmul:
  3094                           
  3095                           	psect	text13
  3096     043A                     __ptext13:	
  3097 ;; *************** function i1___awdiv *****************
  3098 ;; Defined at:
  3099 ;;		line 5 in file "C:\Program Files\Microchip\xc8\v2.40\pic\sources\c90\common\awdiv.c"
  3100 ;; Parameters:    Size  Location     Type
  3101 ;;  divisor         2    6[COMMON] int 
  3102 ;;  dividend        2    8[COMMON] int 
  3103 ;; Auto vars:     Size  Location     Type
  3104 ;;  quotient        2    2[BANK0 ] int 
  3105 ;;  sign            1    1[BANK0 ] unsigned char 
  3106 ;;  counter         1    0[BANK0 ] unsigned char 
  3107 ;; Return value:  Size  Location     Type
  3108 ;;                  2    6[COMMON] int 
  3109 ;; Registers used:
  3110 ;;		wreg, status,2, status,0
  3111 ;; Tracked objects:
  3112 ;;		On entry : 0/0
  3113 ;;		On exit  : 0/0
  3114 ;;		Unchanged: 0/0
  3115 ;; Data sizes:     COMMON   BANK0   BANK1   BANK3   BANK2
  3116 ;;      Params:         4       0       0       0       0
  3117 ;;      Locals:         0       4       0       0       0
  3118 ;;      Temps:          1       0       0       0       0
  3119 ;;      Totals:         5       4       0       0       0
  3120 ;;Total ram usage:        9 bytes
  3121 ;; Hardware stack levels used: 1
  3122 ;; This function calls:
  3123 ;;		Nothing
  3124 ;; This function is called by:
  3125 ;;		_map
  3126 ;;		_map2
  3127 ;; This function uses a non-reentrant model
  3128 ;;
  3129                           
  3130     043A                     i1___awdiv:	
  3131                           ;psect for function i1___awdiv
  3132                           
  3133     043A                     i1l1434:	
  3134                           ;incstack = 0
  3135                           ; Regs used in i1___awdiv: [wreg+status,2+status,0]
  3136                           
  3137     043A  1283               	bcf	3,5	;RP0=0, select bank0
  3138     043B  1303               	bcf	3,6	;RP1=0, select bank0
  3139     043C  01A1               	clrf	i1___awdiv@sign
  3140     043D                     i1l1436:
  3141     043D  1FF7               	btfss	i1___awdiv@divisor+1,7
  3142     043E  2C40               	goto	u79_21
  3143     043F  2C41               	goto	u79_20
  3144     0440                     u79_21:
  3145     0440  2C48               	goto	i1l1442
  3146     0441                     u79_20:
  3147     0441                     i1l1438:
  3148     0441  09F6               	comf	i1___awdiv@divisor,f
  3149     0442  09F7               	comf	i1___awdiv@divisor+1,f
  3150     0443  0AF6               	incf	i1___awdiv@divisor,f
  3151     0444  1903               	skipnz
  3152     0445  0AF7               	incf	i1___awdiv@divisor+1,f
  3153     0446                     i1l1440:
  3154     0446  01A1               	clrf	i1___awdiv@sign
  3155     0447  0AA1               	incf	i1___awdiv@sign,f
  3156     0448                     i1l1442:
  3157     0448  1FF9               	btfss	i1___awdiv@dividend+1,7
  3158     0449  2C4B               	goto	u80_21
  3159     044A  2C4C               	goto	u80_20
  3160     044B                     u80_21:
  3161     044B  2C55               	goto	i1l1448
  3162     044C                     u80_20:
  3163     044C                     i1l1444:
  3164     044C  09F8               	comf	i1___awdiv@dividend,f
  3165     044D  09F9               	comf	i1___awdiv@dividend+1,f
  3166     044E  0AF8               	incf	i1___awdiv@dividend,f
  3167     044F  1903               	skipnz
  3168     0450  0AF9               	incf	i1___awdiv@dividend+1,f
  3169     0451                     i1l1446:
  3170     0451  3001               	movlw	1
  3171     0452  00FA               	movwf	??i1___awdiv
  3172     0453  087A               	movf	??i1___awdiv,w
  3173     0454  06A1               	xorwf	i1___awdiv@sign,f
  3174     0455                     i1l1448:
  3175     0455  01A2               	clrf	i1___awdiv@quotient
  3176     0456  01A3               	clrf	i1___awdiv@quotient+1
  3177     0457                     i1l1450:
  3178     0457  0876               	movf	i1___awdiv@divisor,w
  3179     0458  0477               	iorwf	i1___awdiv@divisor+1,w
  3180     0459  1903               	btfsc	3,2
  3181     045A  2C5C               	goto	u81_21
  3182     045B  2C5D               	goto	u81_20
  3183     045C                     u81_21:
  3184     045C  2C94               	goto	i1l1470
  3185     045D                     u81_20:
  3186     045D                     i1l1452:
  3187     045D  01A0               	clrf	i1___awdiv@counter
  3188     045E  0AA0               	incf	i1___awdiv@counter,f
  3189     045F  2C6B               	goto	i1l1458
  3190     0460                     i1l1454:
  3191     0460  3001               	movlw	1
  3192     0461                     u82_25:
  3193     0461  1003               	clrc
  3194     0462  0DF6               	rlf	i1___awdiv@divisor,f
  3195     0463  0DF7               	rlf	i1___awdiv@divisor+1,f
  3196     0464  3EFF               	addlw	-1
  3197     0465  1D03               	skipz
  3198     0466  2C61               	goto	u82_25
  3199     0467                     i1l1456:
  3200     0467  3001               	movlw	1
  3201     0468  00FA               	movwf	??i1___awdiv
  3202     0469  087A               	movf	??i1___awdiv,w
  3203     046A  07A0               	addwf	i1___awdiv@counter,f
  3204     046B                     i1l1458:
  3205     046B  1FF7               	btfss	i1___awdiv@divisor+1,7
  3206     046C  2C6E               	goto	u83_21
  3207     046D  2C6F               	goto	u83_20
  3208     046E                     u83_21:
  3209     046E  2C60               	goto	i1l1454
  3210     046F                     u83_20:
  3211     046F                     i1l1460:
  3212     046F  3001               	movlw	1
  3213     0470                     u84_25:
  3214     0470  1003               	clrc
  3215     0471  0DA2               	rlf	i1___awdiv@quotient,f
  3216     0472  0DA3               	rlf	i1___awdiv@quotient+1,f
  3217     0473  3EFF               	addlw	-1
  3218     0474  1D03               	skipz
  3219     0475  2C70               	goto	u84_25
  3220     0476  0877               	movf	i1___awdiv@divisor+1,w
  3221     0477  0279               	subwf	i1___awdiv@dividend+1,w
  3222     0478  1D03               	skipz
  3223     0479  2C7C               	goto	u85_25
  3224     047A  0876               	movf	i1___awdiv@divisor,w
  3225     047B  0278               	subwf	i1___awdiv@dividend,w
  3226     047C                     u85_25:
  3227     047C  1C03               	skipc
  3228     047D  2C7F               	goto	u85_21
  3229     047E  2C80               	goto	u85_20
  3230     047F                     u85_21:
  3231     047F  2C87               	goto	i1l1466
  3232     0480                     u85_20:
  3233     0480                     i1l1462:
  3234     0480  0876               	movf	i1___awdiv@divisor,w
  3235     0481  02F8               	subwf	i1___awdiv@dividend,f
  3236     0482  0877               	movf	i1___awdiv@divisor+1,w
  3237     0483  1C03               	skipc
  3238     0484  03F9               	decf	i1___awdiv@dividend+1,f
  3239     0485  02F9               	subwf	i1___awdiv@dividend+1,f
  3240     0486                     i1l1464:
  3241     0486  1422               	bsf	i1___awdiv@quotient,0
  3242     0487                     i1l1466:
  3243     0487  3001               	movlw	1
  3244     0488                     u86_25:
  3245     0488  1003               	clrc
  3246     0489  0CF7               	rrf	i1___awdiv@divisor+1,f
  3247     048A  0CF6               	rrf	i1___awdiv@divisor,f
  3248     048B  3EFF               	addlw	-1
  3249     048C  1D03               	skipz
  3250     048D  2C88               	goto	u86_25
  3251     048E                     i1l1468:
  3252     048E  3001               	movlw	1
  3253     048F  02A0               	subwf	i1___awdiv@counter,f
  3254     0490  1D03               	btfss	3,2
  3255     0491  2C93               	goto	u87_21
  3256     0492  2C94               	goto	u87_20
  3257     0493                     u87_21:
  3258     0493  2C6F               	goto	i1l1460
  3259     0494                     u87_20:
  3260     0494                     i1l1470:
  3261     0494  0821               	movf	i1___awdiv@sign,w
  3262     0495  1903               	btfsc	3,2
  3263     0496  2C98               	goto	u88_21
  3264     0497  2C99               	goto	u88_20
  3265     0498                     u88_21:
  3266     0498  2C9E               	goto	i1l1474
  3267     0499                     u88_20:
  3268     0499                     i1l1472:
  3269     0499  09A2               	comf	i1___awdiv@quotient,f
  3270     049A  09A3               	comf	i1___awdiv@quotient+1,f
  3271     049B  0AA2               	incf	i1___awdiv@quotient,f
  3272     049C  1903               	skipnz
  3273     049D  0AA3               	incf	i1___awdiv@quotient+1,f
  3274     049E                     i1l1474:
  3275     049E  0823               	movf	i1___awdiv@quotient+1,w
  3276     049F  00F7               	movwf	?i1___awdiv+1
  3277     04A0  0822               	movf	i1___awdiv@quotient,w
  3278     04A1  00F6               	movwf	?i1___awdiv
  3279     04A2                     i1l475:
  3280     04A2  0008               	return
  3281     04A3                     __end_ofi1___awdiv:
  3282                           
  3283                           	psect	text14
  3284     05CD                     __ptext14:	
  3285 ;; *************** function _EEPROM_write *****************
  3286 ;; Defined at:
  3287 ;;		line 382 in file "proyecto2.c"
  3288 ;; Parameters:    Size  Location     Type
  3289 ;;  address         1    wreg     unsigned char 
  3290 ;;  data            1    0[COMMON] unsigned char 
  3291 ;; Auto vars:     Size  Location     Type
  3292 ;;  address         1    1[COMMON] unsigned char 
  3293 ;; Return value:  Size  Location     Type
  3294 ;;                  1    wreg      void 
  3295 ;; Registers used:
  3296 ;;		wreg
  3297 ;; Tracked objects:
  3298 ;;		On entry : 0/0
  3299 ;;		On exit  : 0/0
  3300 ;;		Unchanged: 0/0
  3301 ;; Data sizes:     COMMON   BANK0   BANK1   BANK3   BANK2
  3302 ;;      Params:         1       0       0       0       0
  3303 ;;      Locals:         1       0       0       0       0
  3304 ;;      Temps:          0       0       0       0       0
  3305 ;;      Totals:         2       0       0       0       0
  3306 ;;Total ram usage:        2 bytes
  3307 ;; Hardware stack levels used: 1
  3308 ;; This function calls:
  3309 ;;		Nothing
  3310 ;; This function is called by:
  3311 ;;		_isr
  3312 ;; This function uses a non-reentrant model
  3313 ;;
  3314                           
  3315     05CD                     _EEPROM_write:	
  3316                           ;psect for function _EEPROM_write
  3317                           
  3318                           
  3319                           ;incstack = 0
  3320                           ; Regs used in _EEPROM_write: [wreg]
  3321                           ;EEPROM_write@address stored from wreg
  3322     05CD  00F1               	movwf	EEPROM_write@address
  3323     05CE                     i1l1504:
  3324                           
  3325                           ;proyecto2.c: 383:     EEADR = address;
  3326     05CE  0871               	movf	EEPROM_write@address,w
  3327     05CF  1283               	bcf	3,5	;RP0=0, select bank2
  3328     05D0  1703               	bsf	3,6	;RP1=1, select bank2
  3329     05D1  008D               	movwf	13	;volatile
  3330                           
  3331                           ;proyecto2.c: 384:     EEDAT =data;
  3332     05D2  0870               	movf	EEPROM_write@data,w
  3333     05D3  008C               	movwf	12	;volatile
  3334     05D4                     i1l1506:
  3335                           
  3336                           ;proyecto2.c: 385:     EECON1bits.EEPGD=0;
  3337     05D4  1683               	bsf	3,5	;RP0=1, select bank3
  3338     05D5  1703               	bsf	3,6	;RP1=1, select bank3
  3339     05D6  138C               	bcf	12,7	;volsfr
  3340     05D7                     i1l1508:
  3341                           
  3342                           ;proyecto2.c: 386:     EECON1bits.WREN=1;
  3343     05D7  150C               	bsf	12,2	;volsfr
  3344     05D8                     i1l1510:
  3345                           
  3346                           ;proyecto2.c: 387:     INTCONbits.GIE=0;
  3347     05D8  138B               	bcf	11,7	;volatile
  3348                           
  3349                           ;proyecto2.c: 388:     EECON2 = 0x55;
  3350     05D9  3055               	movlw	85
  3351     05DA  008D               	movwf	13	;volsfr
  3352                           
  3353                           ;proyecto2.c: 389:     EECON2 = 0xAA;
  3354     05DB  30AA               	movlw	170
  3355     05DC  008D               	movwf	13	;volsfr
  3356     05DD                     i1l1512:
  3357                           
  3358                           ;proyecto2.c: 390:     EECON1bits.WR=1;
  3359     05DD  148C               	bsf	12,1	;volsfr
  3360     05DE                     i1l233:	
  3361                           ;proyecto2.c: 391:     while(!PIR2bits.EEIF);
  3362                           
  3363     05DE  1283               	bcf	3,5	;RP0=0, select bank0
  3364     05DF  1303               	bcf	3,6	;RP1=0, select bank0
  3365     05E0  1E0D               	btfss	13,4	;volatile
  3366     05E1  2DE3               	goto	u89_21
  3367     05E2  2DE4               	goto	u89_20
  3368     05E3                     u89_21:
  3369     05E3  2DDE               	goto	i1l233
  3370     05E4                     u89_20:
  3371     05E4                     i1l235:
  3372                           
  3373                           ;proyecto2.c: 392:     PIR2bits.EEIF = 0;
  3374     05E4  120D               	bcf	13,4	;volatile
  3375                           
  3376                           ;proyecto2.c: 393:     EECON1bits.WREN = 0;
  3377     05E5  1683               	bsf	3,5	;RP0=1, select bank3
  3378     05E6  1703               	bsf	3,6	;RP1=1, select bank3
  3379     05E7  110C               	bcf	12,2	;volsfr
  3380                           
  3381                           ;proyecto2.c: 394:     INTCONbits.RBIF = 0;
  3382     05E8  100B               	bcf	11,0	;volatile
  3383                           
  3384                           ;proyecto2.c: 395:     PIR1bits.ADIF = 0;
  3385     05E9  1283               	bcf	3,5	;RP0=0, select bank0
  3386     05EA  1303               	bcf	3,6	;RP1=0, select bank0
  3387     05EB  130C               	bcf	12,6	;volatile
  3388                           
  3389                           ;proyecto2.c: 396:     INTCONbits.GIE = 1;
  3390     05EC  178B               	bsf	11,7	;volatile
  3391     05ED                     i1l236:
  3392     05ED  0008               	return
  3393     05EE                     __end_of_EEPROM_write:
  3394     007E                     btemp	set	126	;btemp
  3395     007E                     wtemp0	set	126
  3396                           
  3397                           	psect	idloc
  3398                           
  3399                           ;Config register IDLOC0 @ 0x2000
  3400                           ;	unspecified, using default values
  3401     2000                     	org	8192
  3402     2000  3FFF               	dw	16383
  3403                           
  3404                           ;Config register IDLOC1 @ 0x2001
  3405                           ;	unspecified, using default values
  3406     2001                     	org	8193
  3407     2001  3FFF               	dw	16383
  3408                           
  3409                           ;Config register IDLOC2 @ 0x2002
  3410                           ;	unspecified, using default values
  3411     2002                     	org	8194
  3412     2002  3FFF               	dw	16383
  3413                           
  3414                           ;Config register IDLOC3 @ 0x2003
  3415                           ;	unspecified, using default values
  3416     2003                     	org	8195
  3417     2003  3FFF               	dw	16383
  3418                           
  3419                           	psect	config
  3420                           
  3421                           ;Config register CONFIG1 @ 0x2007
  3422                           ;	Oscillator Selection bits
  3423                           ;	FOSC = INTRC_NOCLKOUT, INTOSCIO oscillator: I/O function on RA6/OSC2/CLKOUT pin, I/O f
      +                          unction on RA7/OSC1/CLKIN
  3424                           ;	Watchdog Timer Enable bit
  3425                           ;	WDTE = OFF, WDT disabled and can be enabled by SWDTEN bit of the WDTCON register
  3426                           ;	Power-up Timer Enable bit
  3427                           ;	PWRTE = OFF, PWRT disabled
  3428                           ;	RE3/MCLR pin function select bit
  3429                           ;	MCLRE = OFF, RE3/MCLR pin function is digital input, MCLR internally tied to VDD
  3430                           ;	Code Protection bit
  3431                           ;	CP = OFF, Program memory code protection is disabled
  3432                           ;	Data Code Protection bit
  3433                           ;	CPD = OFF, Data memory code protection is disabled
  3434                           ;	Brown Out Reset Selection bits
  3435                           ;	BOREN = OFF, BOR disabled
  3436                           ;	Internal External Switchover bit
  3437                           ;	IESO = OFF, Internal/External Switchover mode is disabled
  3438                           ;	Fail-Safe Clock Monitor Enabled bit
  3439                           ;	FCMEN = OFF, Fail-Safe Clock Monitor is disabled
  3440                           ;	Low Voltage Programming Enable bit
  3441                           ;	LVP = OFF, RB3 pin has digital I/O, HV on MCLR must be used for programming
  3442                           ;	In-Circuit Debugger Mode bit
  3443                           ;	DEBUG = 0x1, unprogramme  3444     2007                     	org	8199
  3445     2007  20D4               	dw	8404
  3446                           
  3447                           ;Config register CONFIG2 @ 0x2008
  3448                           ;	Brown-out Reset Selection bit
  3449                           ;	BOR4V = BOR40V, Brown-out Reset set to 4.0V
  3450                           ;	Flash Program Memory Self Write Enable bits
  3451                           ;	WRT = OFF, Write protection off
  3452     2008                     	org	8200
  3453     2008  3FFF               	dw	16383

Data Sizes:
    Strings     8
    Constant    0
    Data        5
    BSS         11
    Persistent  0
    Stack       0

Auto Spaces:
    Space          Size  Autos    Used
    COMMON           14     13      13
    BANK0            80     37      53
    BANK1            80      0       0
    BANK3            96      0       0
    BANK2            96      0       0

Pointer List with Targets:

    strcmp@s2	PTR const unsigned char  size(1) Largest target is 2
		 -> STR_4(CODE[2]), STR_3(CODE[2]), STR_2(CODE[2]), STR_1(CODE[2]), 

    strcmp@s1	PTR const unsigned char  size(1) Largest target is 2
		 -> input(BANK0[2]), 


Critical Paths under _main in COMMON

    None.

Critical Paths under _isr in COMMON

    _isr->_map
    _map2->i1___awdiv
    _map->i1___awdiv
    i1___awdiv->i1___wmul

Critical Paths under _main in BANK0

    _main->_map3
    _map4->___awdiv
    _map3->___awdiv
    ___awdiv->___wmul

Critical Paths under _isr in BANK0

    _isr->_map2
    _map2->i1___awdiv
    _map->i1___awdiv

Critical Paths under _main in BANK1

    None.

Critical Paths under _isr in BANK1

    None.

Critical Paths under _main in BANK3

    None.

Critical Paths under _isr in BANK3

    None.

Critical Paths under _main in BANK2

    None.

Critical Paths under _isr in BANK2

    None.

Call Graph Tables:

 ---------------------------------------------------------------------------------
 (Depth) Function   	        Calls       Base Space   Used Autos Params    Refs
 ---------------------------------------------------------------------------------
 (0) _main                                                 2     2      0    4015
                                             35 BANK0      2     2      0
                        _EEPROM_read
                         _USART_read
                               _map3
                               _map4
                              _setup
                             _strcmp
 ---------------------------------------------------------------------------------
 (1) _strcmp                                               6     4      2     527
                                             14 BANK0      6     4      2
 ---------------------------------------------------------------------------------
 (1) _setup                                                0     0      0       0
 ---------------------------------------------------------------------------------
 (1) _map4                                                12    10      2    1733
                                             29 BANK0      4     2      2
                         _USART_read (ARG)
                            ___awdiv
                             ___wmul
 ---------------------------------------------------------------------------------
 (1) _map3                                                12    10      2    1733
                                             29 BANK0      6     4      2
                         _USART_read (ARG)
                            ___awdiv
                             ___wmul
 ---------------------------------------------------------------------------------
 (2) ___wmul                                               6     2      4     596
                                             14 BANK0      6     2      4
 ---------------------------------------------------------------------------------
 (2) ___awdiv                                              9     5      4     804
                                             20 BANK0      9     5      4
                             ___wmul (ARG)
 ---------------------------------------------------------------------------------
 (1) _USART_read                                           0     0      0       0
 ---------------------------------------------------------------------------------
 (1) _EEPROM_read                                          1     1      0      22
                                             14 BANK0      1     1      0
 ---------------------------------------------------------------------------------
 Estimated maximum stack depth 2
 ---------------------------------------------------------------------------------
 (Depth) Function   	        Calls       Base Space   Used Autos Params    Refs
 ---------------------------------------------------------------------------------
 (3) _isr                                                  4     4      0    2518
                                             10 BANK0      4     4      0
                       _EEPROM_write
                                _map
                               _map2
 ---------------------------------------------------------------------------------
 (4) _map2                                                12    10      2     933
                                              4 BANK0      6     4      2
                          i1___awdiv
                           i1___wmul
 ---------------------------------------------------------------------------------
 (4) _map                                                 12    10      2     933
                                             11 COMMON     2     2      0
                                              4 BANK0      2     0      2
                          i1___awdiv
                           i1___wmul
 ---------------------------------------------------------------------------------
 (5) i1___wmul                                             6     2      4     196
                                              0 COMMON     6     2      4
 ---------------------------------------------------------------------------------
 (5) i1___awdiv                                            9     5      4     404
                                              6 COMMON     5     1      4
                                              0 BANK0      4     4      0
                           i1___wmul (ARG)
 ---------------------------------------------------------------------------------
 (4) _EEPROM_write                                         2     1      1     652
                                              0 COMMON     2     1      1
 ---------------------------------------------------------------------------------
 Estimated maximum stack depth 5
 ---------------------------------------------------------------------------------

 Call Graph Graphs:

 _main (ROOT)
   _EEPROM_read
   _USART_read
   _map3
     _USART_read (ARG)
     ___awdiv (ARG)
       ___wmul (ARG)
     ___wmul (ARG)
   _map4
     _USART_read (ARG)
     ___awdiv (ARG)
     ___wmul (ARG)
   _setup
   _strcmp

 _isr (ROOT)
   _EEPROM_write
   _map
     i1___awdiv
       i1___wmul (ARG)
     i1___wmul
   _map2
     i1___awdiv
     i1___wmul

 Address spaces:
Name               Size   Autos  Total    Cost      Usage
BANK3               60      0       0       9        0.0%
BITBANK3            60      0       0       8        0.0%
SFR3                 0      0       0       4        0.0%
BITSFR3              0      0       0       4        0.0%
BANK2               60      0       0      11        0.0%
BITBANK2            60      0       0      10        0.0%
SFR2                 0      0       0       5        0.0%
BITSFR2              0      0       0       5        0.0%
BANK1               50      0       0       7        0.0%
BITBANK1            50      0       0       6        0.0%
SFR1                 0      0       0       2        0.0%
BITSFR1              0      0       0       2        0.0%
BANK0               50     25      35       5       66.2%
BITBANK0            50      0       0       4        0.0%
SFR0                 0      0       0       1        0.0%
BITSFR0              0      0       0       1        0.0%
COMMON               E      D       D       1       92.9%
BITCOMMON            E      0       0       0        0.0%
CODE                 0      0       0       0        0.0%
DATA                 0      0      42      12        0.0%
ABS                  0      0      42       3        0.0%
NULL                 0      0       0       0        0.0%
STACK                0      0       0       2        0.0%
EEDATA             100      0       0       0        0.0%


Microchip Technology PIC Macro Assembler V2.40 build 20220703182018 
Symbol Table                                                                                   Wed May 31 02:12:47 2023

                      pc 0002             ___awdiv@sign 003A                       fsr 0004  
    ___wmul@multiplicand 0030         i1___wmul@product 0074       EEPROM_read@address 002E  
                    l221 04FD                      l230 05FC                      l206 03B7  
                    l224 060E                      l208 03BB                      l209 03D0  
                    l322 058F                      l218 052A                      l227 0615  
                    l324 05A7                      l181 0055                      l182 0061  
                    l183 006D                      l184 0079                      l177 0091  
                    l179 004B                      l475 0439                      l778 04D0  
                    _PR2 0092                      u610 0589                      u611 0588  
                    u710 0417                      u711 0416                      u640 05A3  
                    u705 0407                      u641 05A2                      u625 0590  
                    u730 042B                      u650 03D8                      u731 042A  
                    u715 0413                      u651 03D7                      u635 0597  
                    u740 0430                      u660 03E3                      u900 03BB  
                    u741 042F                      u725 041F                      u661 03E2  
                    u901 03BA                      u910 0614                      u670 03F4  
                    u911 0613                      u671 03F3                      u920 04C4  
                    u921 04C3                      u690 0406                      u930 04CB  
                    u691 0405                      u931 04CA                      u685 03F8  
                    _map 0556                      _isr 01EA                      fsr0 0004  
                    indf 0000                     l1400 0402                     l1410 0425  
                   l1402 0406                     l1404 0417                     l1412 042B  
                   l1414 0430                     l1406 041D                     l1416 0435  
                   l1408 041E                     l1600 03B4                     l1520 0348  
                   l1370 059D                     l1362 0581                     l1602 03B5  
                   l1530 0362                     l1522 034B                     l1514 0340  
                   l1610 04A6                     l1604 060E                     l1380 03D8  
                   l1372 05A3                     l1364 0585                     l1540 036E  
                   l1532 0363                     l1524 034E                     l1516 0343  
                   l1620 04CB                     l1612 04A7                     l1606 0614  
                   l1390 03EC                     l1382 03DD                     l1366 0589  
                   l1630 0504                     l1550 0378                     l1542 036F  
                   l1534 0366                     l1526 0355                     l1518 0347  
                   l1614 04AB                     l1392 03EE                     l1384 03DF  
                   l1376 03D1                     l1368 0596                     l1632 0526  
                   l1624 04FE                     l1640 04D1                     l1560 0386  
                   l1552 037B                     l1544 0370                     l1536 0369  
                   l1528 0359                     l1616 04AF                     l1800 0130  
                   l1650 05F1                     l1394 03F4                     l1386 03E3  
                   l1378 03D4                     l1626 04FE                     l1642 04D1  
                   l1570 0394                     l1562 0389                     l1554 037C  
                   l1546 0373                     l1538 036D                     l1618 04C4  
                   l1810 016F                     l1802 0140                     l1652 05F5  
                   l1396 03F7                     l1388 03E8                     l1628 04FE  
                   l1644 04D1                     l1636 04D1                     l1580 03A0  
                   l1572 0397                     l1564 038A                     l1556 037D  
                   l1548 0377                     l1820 0195                     l1812 0171  
                   l1804 0141                     l1740 004C                     l1732 003E  
                   l1654 05F8                     l1398 03FE                     l1646 04F9  
                   l1638 04D1                     l1590 03AD                     l1582 03A1  
                   l1574 039A                     l1566 038E                     l1558 0380  
                   l1830 01C1                     l1822 01A0                     l1814 017A  
                   l1806 0159                     l1750 005D                     l1742 004E  
                   l1734 0044                     l1656 05F9                     l1592 03AF  
                   l1584 03A3                     l1576 039B                     l1568 0391  
                   l1832 01C5                     l1824 01A4                     l1816 0183  
                   l1808 0165                     l1760 0072                     l1752 0062  
                   l1744 0051                     l1736 0046                     l1594 03B0  
                   l1586 03A7                     l1578 039D                     l1834 01D2  
                   l1826 01B1                     l1818 018C                     l1770 0094  
                   l1762 0075                     l1754 0066                     l1746 0056  
                   l1596 03B1                     l1588 03AB                     l1828 01B4  
                   l1780 00C4                     l1772 009C                     l1756 0069  
                   l1748 005A                     l1598 03B2                     l1790 00F1  
                   l1782 00C7                     l1774 009D                     l1758 006E  
                   l1766 007B                     l1838 01D5                     l1792 0101  
                   l1784 00D7                     l1776 00AD                     l1768 0092  
                   l1890 01DC                     l1794 0102                     l1786 00D8  
                   l1778 00AE                     l1796 011A                     l1788 00EE  
                   l1798 0126                     ?_map 0024                     l1888 0080  
                   ?_isr 0070                     _CCPR 004B                     STR_1 0606  
                   STR_2 0608                     STR_3 060A                     STR_4 060C  
                   u1200 01D2                     u1120 004A                     u1201 01D1  
                   u1121 0049                     u1130 00AD                     u1131 00AC  
                   u1140 00D7                     u1141 00D6                     u1150 0101  
                   u1151 0100                     u1160 0140                     u1161 013F  
                   u1170 01A0                     u1171 019F                     u1180 01B1  
                   _IOCB 0096                     u1181 01B0                     u1190 01C1  
                   u1191 01C0                     _RCIF 0065                     _WPUB 0095  
                   _map2 052B                     _map3 04FE                     _map4 04D1  
                   _cont 0047                     _main 003E                     _menu 0045  
                   btemp 007E                     start 000E                    ??_map 007B  
                  ??_isr 002A     __end_of_EEPROM_write 05EE                    ?_map2 0024  
                  ?_map3 003D                    ?_map4 003D                    ?_main 0070  
         i1___awdiv@sign 0021          __end_of___awdiv 043A                    _EEADR 010D  
                  _EEDAT 010C                    _ANSEL 0188          ___awdiv@divisor 0034  
                  _T2CON 0012                    i1l212 0580                    i1l150 029F  
                  i1l215 0555                    i1l143 0288                    i1l160 02CC  
                  i1l152 02A8                    i1l233 05DE                    i1l161 0336  
                  i1l322 05B4                    i1l154 02B1                    i1l235 05E4  
                  i1l236 05ED                    i1l324 05CC                    i1l156 02BA  
                  i1l148 0296                    i1l158 02C3                    i1l169 0337  
                  i1l475 04A2          ___awdiv@counter 0039                    _RCREG 001A  
                  _SPBRG 0099                    _PORTA 0005                    _PORTB 0006  
                  _PORTD 0008                    _PORTE 0009                    u80_20 044C  
                  u80_21 044B                    u81_20 045D                    u81_21 045C  
                  _TRISA 0085                    _TRISB 0086                    _TRISD 0088  
                  _TRISE 0089                    u82_25 0461                    u83_20 046F  
                  u75_20 05AE                    u83_21 046E                    u75_21 05AD  
                  u84_25 0470                    u76_25 05B5                    u85_20 0480  
                  u85_21 047F                    u85_25 047C                    u77_25 05BC  
                  u78_20 05C8                    u94_20 01EE                    u78_21 05C7  
                  u94_21 01ED                    u86_25 0488                    u87_20 0494  
                  u79_20 0441                    u95_20 01F7                    u87_21 0493  
                  u79_21 0440                    u95_21 01F6                    u88_20 0499  
                  u96_20 0213                    u88_21 0498                    u96_21 0212  
                  u89_20 05E4                    u97_20 022F                    u89_21 05E3  
                  u97_21 022E                    u98_20 0260                    u98_21 025F  
                  u99_20 028D                    u99_21 028C                    _input 004E  
                  _setup 0340                    pclath 000A         __end_ofi1___wmul 05CD  
                  status 0003      i1___wmul@multiplier 0070                    wtemp0 007E  
            ?_USART_read 0070          __initialization 0011             __end_of_map2 0556  
           __end_of_map3 052B             __end_of_map4 04FE             __end_of_main 01EA  
                 ??_map2 007B                   ??_map3 003F                   ??_map4 003F  
                 ??_main 0043      EEPROM_write@address 0071                   _ADRESH 001E  
                 _CCPR1L 0015                   _CCPR2L 001B                   _EECON2 018D  
       ___awdiv@dividend 0036                   _CCPR_2 0049                   ?_setup 0070  
                 _ANSELH 0189                   u100_20 0291                   u100_21 0290  
                 u101_20 029A                   u101_21 0299                   u110_20 031E  
                 u102_20 02A3                   u110_21 031D                   u102_21 02A2  
                 u111_20 032E                   u103_20 02AC                   u111_21 032D  
                 u103_21 02AB                   i1l1420 05A8                   i1l1500 057A  
                 i1l1510 05D8                   i1l1430 05C8                   i1l1422 05AA  
                 i1l1512 05DD                   i1l1504 05CE                   i1l1440 0446  
                 i1l1424 05AE                   u104_20 02B5                   u104_21 02B4  
                 i1l1506 05D4                   i1l1450 0457                   i1l1442 0448  
                 i1l1434 043A                   i1l1426 05BB                   i1l1508 05D7  
                 i1l1460 046F                   i1l1452 045D                   i1l1444 044C  
                 i1l1436 043D                   i1l1428 05C2                   i1l1700 02A3  
                 i1l1462 0480                   i1l1454 0460                   i1l1470 0494  
                 i1l1446 0451                   i1l1438 0441                   i1l1710 02D0  
                 i1l1702 02AC                   i1l1472 0499                   i1l1464 0486  
                 i1l1456 0467                   i1l1448 0455                   i1l1480 052B  
                 i1l1720 0315                   i1l1712 02F6                   u105_20 02BE  
                 i1l1704 02B5                   u105_21 02BD                   i1l1474 049E  
                 i1l1466 0487                   i1l1458 046B                   i1l1490 0556  
                 i1l1482 052B                   i1l1722 031E                   i1l1714 02FE  
                 i1l1706 02BE                   i1l1468 048E                   i1l1492 0556  
                 i1l1484 0531                   i1l1724 0327                   i1l1716 0307  
                 i1l1708 02C7                   i1l1660 01EA                   i1l1494 0556  
                 i1l1486 0551                   i1l1478 052B                   i1l1726 032E  
                 i1l1718 030E                   i1l1670 0213                   i1l1662 01EE  
                 i1l1496 0556                   u106_20 02C7                   i1l1728 0336  
                 i1l1680 024D                   i1l1672 0223                   i1l1664 01F7  
                 u106_21 02C6                   i1l1498 0556                   i1l1682 0257  
                 i1l1674 0226                   i1l1690 0288                   i1l1666 0207  
                 i1l1684 0260                   i1l1676 022F                   i1l1668 020A  
                 i1l1692 0289                   i1l1694 028D                   i1l1686 0272  
                 i1l1678 0241                   u107_20 02D0                   i1l1696 0291  
                 i1l1688 027E                   u107_21 02CF                   i1l1698 029A  
                 u108_20 02FE                   u108_21 02FD                   u109_20 030E  
                 u109_21 030D                   _SPBRGH 009A                   ___wmul 0581  
              ??___awdiv 0038         ___awdiv@quotient 003B                   _strcmp 04A3  
      __end_ofi1___awdiv 04A3                   saved_w 007E  __end_of__initialization 003A  
         __pcstackCOMMON 0070             __pidataBANK0 0616            __end_of_setup 03D1  
              ?i1___wmul 0070           _OPTION_REGbits 0081                  ??_setup 002E  
             __pbssBANK0 0045             _EEPROM_write 05CD               __pmaintext 003E  
                ?___wmul 002E               __pintentry 0004                  _CCP1CON 0017  
                _CCP2CON 001D               ??i1___wmul 0074                  ?_strcmp 002E  
     i1___awdiv@dividend 0078               __stringtab 0600         EEPROM_write@data 0070  
     i1___awdiv@quotient 0022             ??_USART_read 002E                  ___awdiv 03D1  
        _address_CCP1CON 0054          _address_CCP2CON 0052                  __ptext1 04A3  
                __ptext2 0340                  __ptext3 04D1                  __ptext4 04FE  
                __ptext5 0581                  __ptext6 03D1                  __ptext7 060E  
                __ptext8 05EE                  __ptext9 01EA                _T2CONbits 0012  
             map2@output 0028               map3@output 0041               map4@output 003F  
     __end_of_USART_read 0616     end_of_initialization 003A            ??_EEPROM_read 002E  
          map2@outputMax 0026                _RCSTAbits 0018    i1___wmul@multiplicand 0072  
                strcmp@r 0032            map3@outputMax 003F                _PORTBbits 0006  
              _PORTCbits 0007                _PORTDbits 0008                _TRISCbits 0087  
              i1___awdiv 043A              _CCP1CONbits 0017              _CCP2CONbits 001D  
              _TXSTAbits 0098      __end_of_EEPROM_read 05FD           __end_of___wmul 05A8  
            _BAUDCTLbits 0187           __end_of_strcmp 04D1      start_initialization 0011  
            __end_of_map 0581              __end_of_isr 0340               ?i1___awdiv 0076  
               ??___wmul 0032              __pdataBANK0 0050                 ??_strcmp 0030  
              ___latbits 0002            __pcstackBANK0 0020              _EEPROM_read 05EE  
               ?___awdiv 0034        i1___awdiv@divisor 0076        i1___awdiv@counter 0020  
              __pstrings 0600              ??i1___awdiv 007A           _address_CCPR1L 004D  
         _address_CCPR2L 0053                map2@input 0024                map3@input 003D  
              map4@input 003D        interrupt_function 0004           ___wmul@product 0032  
               _PIE1bits 008C                 _PIR1bits 000C                 _PIR2bits 000D  
             _ADCON0bits 001F              __stringbase 0605               _ADCON1bits 009F  
      ___wmul@multiplier 002E                 i1___wmul 05A8                map@output 007B  
             _EECON1bits 018C       __end_of__stringtab 0606                 _addressC 0051  
               _addressD 0050                 __ptext10 052B                 __ptext11 0556  
               __ptext12 05A8                 __ptext13 043A                 __ptext14 05CD  
          ?_EEPROM_write 0070                 map@input 0024               _INTCONbits 000B  
               intlevel1 0000           ??_EEPROM_write 0071             ?_EEPROM_read 0070  
              stringcode 0600               _OSCCONbits 008F                 strcmp@s1 0033  
               strcmp@s2 002E                 stringdir 0600                 stringtab 0600  
             _USART_read 060E  
